
obj/net/ns:     file format elf32-i386


Disassembly of section .text:

00800020 <_start>:
// starts us running when we are initially loaded into a new environment.
.text
.globl _start
_start:
	// See if we were started with arguments on the stack
	cmpl $USTACKTOP, %esp
  800020:	81 fc 00 e0 bf ee    	cmp    $0xeebfe000,%esp
	jne args_exist
  800026:	75 04                	jne    80002c <args_exist>

	// If not, push dummy argc/argv arguments.
	// This happens when we are loaded by the kernel,
	// because the kernel does not know about passing arguments.
	pushl $0
  800028:	6a 00                	push   $0x0
	pushl $0
  80002a:	6a 00                	push   $0x0

0080002c <args_exist>:

args_exist:
	call libmain
  80002c:	e8 37 09 00 00       	call   800968 <libmain>
1:	jmp 1b
  800031:	eb fe                	jmp    800031 <args_exist+0x5>
	...

00800040 <put_buffer>:

	return va;
}

static void
put_buffer(void *va) {
  800040:	55                   	push   %ebp
  800041:	89 e5                	mov    %esp,%ebp
	int i = ((uint32_t)va - REQVA) / PGSIZE;
	buse[i] = 0;
  800043:	2d 00 b0 fe 0f       	sub    $0xffeb000,%eax
  800048:	c1 e8 0c             	shr    $0xc,%eax
  80004b:	c7 04 85 c0 93 81 00 	movl   $0x0,0x8193c0(,%eax,4)
  800052:	00 00 00 00 
}
  800056:	5d                   	pop    %ebp
  800057:	c3                   	ret    

00800058 <umain>:
	serve();
}

void
umain(void)
{
  800058:	55                   	push   %ebp
  800059:	89 e5                	mov    %esp,%ebp
  80005b:	53                   	push   %ebx
  80005c:	83 ec 14             	sub    $0x14,%esp
	envid_t ns_envid = sys_getenvid();
  80005f:	e8 7a 19 00 00       	call   8019de <sys_getenvid>
  800064:	89 c3                	mov    %eax,%ebx

	binaryname = "ns";
  800066:	c7 05 00 90 81 00 c3 	movl   $0x812ec3,0x819000
  80006d:	2e 81 00 

	// fork off the timer thread which will send us periodic messages
	timer_envid = fork();
  800070:	e8 60 1b 00 00       	call   801bd5 <fork>
  800075:	a3 a4 93 81 00       	mov    %eax,0x8193a4
	if (timer_envid < 0)
  80007a:	85 c0                	test   %eax,%eax
  80007c:	79 1c                	jns    80009a <umain+0x42>
		panic("error forking");
  80007e:	c7 44 24 08 c0 24 81 	movl   $0x8124c0,0x8(%esp)
  800085:	00 
  800086:	c7 44 24 04 43 01 00 	movl   $0x143,0x4(%esp)
  80008d:	00 
  80008e:	c7 04 24 ce 24 81 00 	movl   $0x8124ce,(%esp)
  800095:	e8 3a 09 00 00       	call   8009d4 <_panic>
	else if (timer_envid == 0) {
  80009a:	85 c0                	test   %eax,%eax
  80009c:	75 15                	jne    8000b3 <umain+0x5b>
		timer(ns_envid, TIMER_INTERVAL);
  80009e:	c7 44 24 04 fa 00 00 	movl   $0xfa,0x4(%esp)
  8000a5:	00 
  8000a6:	89 1c 24             	mov    %ebx,(%esp)
  8000a9:	e8 d2 06 00 00       	call   800780 <timer>
		return;
  8000ae:	e9 a3 00 00 00       	jmp    800156 <umain+0xfe>
	}

	// fork off the input thread which will poll the NIC driver for input
	// packets
	input_envid = fork();
  8000b3:	e8 1d 1b 00 00       	call   801bd5 <fork>
  8000b8:	a3 a8 93 81 00       	mov    %eax,0x8193a8
	if (input_envid < 0)
  8000bd:	85 c0                	test   %eax,%eax
  8000bf:	79 1c                	jns    8000dd <umain+0x85>
		panic("error forking");
  8000c1:	c7 44 24 08 c0 24 81 	movl   $0x8124c0,0x8(%esp)
  8000c8:	00 
  8000c9:	c7 44 24 04 4d 01 00 	movl   $0x14d,0x4(%esp)
  8000d0:	00 
  8000d1:	c7 04 24 ce 24 81 00 	movl   $0x8124ce,(%esp)
  8000d8:	e8 f7 08 00 00       	call   8009d4 <_panic>
	else if (input_envid == 0) {
  8000dd:	85 c0                	test   %eax,%eax
  8000df:	75 0a                	jne    8000eb <umain+0x93>
		input(ns_envid);
  8000e1:	89 1c 24             	mov    %ebx,(%esp)
  8000e4:	e8 37 07 00 00       	call   800820 <input>
		return;
  8000e9:	eb 6b                	jmp    800156 <umain+0xfe>
	}

	// fork off the output thread that will send the packets to the NIC
	// driver
	output_envid = fork();
  8000eb:	90                   	nop
  8000ec:	8d 74 26 00          	lea    0x0(%esi,%eiz,1),%esi
  8000f0:	e8 e0 1a 00 00       	call   801bd5 <fork>
  8000f5:	a3 ac 93 81 00       	mov    %eax,0x8193ac
	if (output_envid < 0)
  8000fa:	85 c0                	test   %eax,%eax
  8000fc:	79 1c                	jns    80011a <umain+0xc2>
		panic("error forking");
  8000fe:	c7 44 24 08 c0 24 81 	movl   $0x8124c0,0x8(%esp)
  800105:	00 
  800106:	c7 44 24 04 57 01 00 	movl   $0x157,0x4(%esp)
  80010d:	00 
  80010e:	c7 04 24 ce 24 81 00 	movl   $0x8124ce,(%esp)
  800115:	e8 ba 08 00 00       	call   8009d4 <_panic>
	else if (output_envid == 0) {
  80011a:	85 c0                	test   %eax,%eax
  80011c:	75 0a                	jne    800128 <umain+0xd0>
		output(ns_envid);
  80011e:	89 1c 24             	mov    %ebx,(%esp)
  800121:	e8 ba 07 00 00       	call   8008e0 <output>
		return;
  800126:	eb 2e                	jmp    800156 <umain+0xfe>
	}

	// lwIP requires a user threading library; start the library and jump
	// into a thread to continue initialization. 
	thread_init();
  800128:	e8 a3 dd 00 00       	call   80ded0 <thread_init>
	thread_create(0, "main", tmain, 0);
  80012d:	c7 44 24 0c 00 00 00 	movl   $0x0,0xc(%esp)
  800134:	00 
  800135:	c7 44 24 08 14 07 80 	movl   $0x800714,0x8(%esp)
  80013c:	00 
  80013d:	c7 44 24 04 d9 24 81 	movl   $0x8124d9,0x4(%esp)
  800144:	00 
  800145:	c7 04 24 00 00 00 00 	movl   $0x0,(%esp)
  80014c:	e8 66 df 00 00       	call   80e0b7 <thread_create>
	thread_yield();
  800151:	e8 1a de 00 00       	call   80df70 <thread_yield>
	// never coming here!
}
  800156:	83 c4 14             	add    $0x14,%esp
  800159:	5b                   	pop    %ebx
  80015a:	5d                   	pop    %ebp
  80015b:	c3                   	ret    

0080015c <serve>:
	sys_page_unmap(0, (void*) args->req);
	free(args);
}

void
serve(void) {
  80015c:	55                   	push   %ebp
  80015d:	89 e5                	mov    %esp,%ebp
  80015f:	57                   	push   %edi
  800160:	56                   	push   %esi
  800161:	53                   	push   %ebx
  800162:	83 ec 3c             	sub    $0x3c,%esp
  800165:	bb 00 00 00 00       	mov    $0x0,%ebx
		for (i = 0; thread_wakeups_pending() && i < 32; ++i)
			thread_yield();

		perm = 0;
		va = get_buffer();
		reqno = ipc_recv((int32_t *) &whom, (void *) va, &perm);
  80016a:	8d 7d e0             	lea    -0x20(%ebp),%edi
  80016d:	eb 08                	jmp    800177 <serve+0x1b>
	while (1) {
		// ipc_recv will block the entire process, so we flush
		// all pending work from other threads.  We limit the
		// number of yields in case there's a rogue thread.
		for (i = 0; thread_wakeups_pending() && i < 32; ++i)
			thread_yield();
  80016f:	e8 fc dd 00 00       	call   80df70 <thread_yield>
	
	while (1) {
		// ipc_recv will block the entire process, so we flush
		// all pending work from other threads.  We limit the
		// number of yields in case there's a rogue thread.
		for (i = 0; thread_wakeups_pending() && i < 32; ++i)
  800174:	83 c3 01             	add    $0x1,%ebx
  800177:	e8 a5 dd 00 00       	call   80df21 <thread_wakeups_pending>
  80017c:	85 c0                	test   %eax,%eax
  80017e:	74 05                	je     800185 <serve+0x29>
  800180:	83 fb 1f             	cmp    $0x1f,%ebx
  800183:	7e ea                	jle    80016f <serve+0x13>
			thread_yield();

		perm = 0;
  800185:	c7 45 e0 00 00 00 00 	movl   $0x0,-0x20(%ebp)
get_buffer(void) {
	void *va;

	int i;
	for (i = 0; i < QUEUE_SIZE; i++)
		if (!buse[i]) break;
  80018c:	83 3d c0 93 81 00 00 	cmpl   $0x0,0x8193c0
  800193:	74 3b                	je     8001d0 <serve+0x74>
  800195:	b8 01 00 00 00       	mov    $0x1,%eax
  80019a:	ba c0 93 81 00       	mov    $0x8193c0,%edx
  80019f:	83 3c 82 00          	cmpl   $0x0,(%edx,%eax,4)
  8001a3:	74 0a                	je     8001af <serve+0x53>
static void *
get_buffer(void) {
	void *va;

	int i;
	for (i = 0; i < QUEUE_SIZE; i++)
  8001a5:	83 c0 01             	add    $0x1,%eax
  8001a8:	83 f8 14             	cmp    $0x14,%eax
  8001ab:	75 f2                	jne    80019f <serve+0x43>
  8001ad:	eb 05                	jmp    8001b4 <serve+0x58>
		if (!buse[i]) break;

	if (i == QUEUE_SIZE) {
  8001af:	83 f8 14             	cmp    $0x14,%eax
  8001b2:	75 21                	jne    8001d5 <serve+0x79>
		panic("NS: buffer overflow");
  8001b4:	c7 44 24 08 de 24 81 	movl   $0x8124de,0x8(%esp)
  8001bb:	00 
  8001bc:	c7 44 24 04 3f 00 00 	movl   $0x3f,0x4(%esp)
  8001c3:	00 
  8001c4:	c7 04 24 ce 24 81 00 	movl   $0x8124ce,(%esp)
  8001cb:	e8 04 08 00 00       	call   8009d4 <_panic>
  8001d0:	b8 00 00 00 00       	mov    $0x0,%eax
		return 0;
	}

	va = (void *)(REQVA + i * PGSIZE);
  8001d5:	8d 98 eb ff 00 00    	lea    0xffeb(%eax),%ebx
  8001db:	c1 e3 0c             	shl    $0xc,%ebx
	buse[i] = 1;
  8001de:	c7 04 85 c0 93 81 00 	movl   $0x1,0x8193c0(,%eax,4)
  8001e5:	01 00 00 00 
		for (i = 0; thread_wakeups_pending() && i < 32; ++i)
			thread_yield();

		perm = 0;
		va = get_buffer();
		reqno = ipc_recv((int32_t *) &whom, (void *) va, &perm);
  8001e9:	89 7c 24 08          	mov    %edi,0x8(%esp)
  8001ed:	89 5c 24 04          	mov    %ebx,0x4(%esp)
  8001f1:	8d 45 e4             	lea    -0x1c(%ebp),%eax
  8001f4:	89 04 24             	mov    %eax,(%esp)
  8001f7:	e8 9a 1c 00 00       	call   801e96 <ipc_recv>
  8001fc:	89 c6                	mov    %eax,%esi
		if (debug) {
			cprintf("ns req %d from %08x\n", reqno, whom);
		}

		// first take care of requests that do not contain an argument page
		if (reqno == NSREQ_TIMER) {
  8001fe:	83 f8 0c             	cmp    $0xc,%eax
  800201:	75 67                	jne    80026a <serve+0x10e>
			process_timer(whom);
  800203:	8b 75 e4             	mov    -0x1c(%ebp),%esi

static void
process_timer(envid_t envid) {
	uint32_t start, now, to;

	if (envid != timer_envid) {
  800206:	3b 35 a4 93 81 00    	cmp    0x8193a4,%esi
  80020c:	74 12                	je     800220 <serve+0xc4>
		cprintf("NS: received timer interrupt from envid %x not timer env\n", envid);
  80020e:	89 74 24 04          	mov    %esi,0x4(%esp)
  800212:	c7 04 24 6c 25 81 00 	movl   $0x81256c,(%esp)
  800219:	e8 7b 08 00 00       	call   800a99 <cprintf>
  80021e:	eb 39                	jmp    800259 <serve+0xfd>
		return;
	}

	start = sys_time_msec();
  800220:	e8 87 14 00 00       	call   8016ac <sys_time_msec>
  800225:	89 45 d4             	mov    %eax,-0x2c(%ebp)
	thread_yield();
  800228:	e8 43 dd 00 00       	call   80df70 <thread_yield>
	now = sys_time_msec();
  80022d:	e8 7a 14 00 00       	call   8016ac <sys_time_msec>

	to = TIMER_INTERVAL - (now - start);
	ipc_send(envid, to, 0, 0);
  800232:	c7 44 24 0c 00 00 00 	movl   $0x0,0xc(%esp)
  800239:	00 
  80023a:	c7 44 24 08 00 00 00 	movl   $0x0,0x8(%esp)
  800241:	00 
  800242:	8b 55 d4             	mov    -0x2c(%ebp),%edx
  800245:	81 c2 fa 00 00 00    	add    $0xfa,%edx
  80024b:	29 c2                	sub    %eax,%edx
  80024d:	89 54 24 04          	mov    %edx,0x4(%esp)
  800251:	89 34 24             	mov    %esi,(%esp)
  800254:	e8 d7 1b 00 00       	call   801e30 <ipc_send>
		}

		// first take care of requests that do not contain an argument page
		if (reqno == NSREQ_TIMER) {
			process_timer(whom);
			put_buffer(va);
  800259:	89 d8                	mov    %ebx,%eax
  80025b:	e8 e0 fd ff ff       	call   800040 <put_buffer>
  800260:	bb 00 00 00 00       	mov    $0x0,%ebx
			continue;
  800265:	e9 0d ff ff ff       	jmp    800177 <serve+0x1b>
		}

		// All remaining requests must contain an argument page
		if (!(perm & PTE_P)) {
  80026a:	f6 45 e0 01          	testb  $0x1,-0x20(%ebp)
  80026e:	66 90                	xchg   %ax,%ax
  800270:	75 1d                	jne    80028f <serve+0x133>
			cprintf("Invalid request from %08x: no argument page\n", whom);
  800272:	8b 45 e4             	mov    -0x1c(%ebp),%eax
  800275:	89 44 24 04          	mov    %eax,0x4(%esp)
  800279:	c7 04 24 a8 25 81 00 	movl   $0x8125a8,(%esp)
  800280:	e8 14 08 00 00       	call   800a99 <cprintf>
  800285:	bb 00 00 00 00       	mov    $0x0,%ebx
			continue; // just leave it hanging...
  80028a:	e9 e8 fe ff ff       	jmp    800177 <serve+0x1b>
		}

		// Since some lwIP socket calls will block, create a thread and
		// process the rest of the request in the thread.
		struct st_args *args = malloc(sizeof(struct st_args));
  80028f:	c7 04 24 0c 00 00 00 	movl   $0xc,(%esp)
  800296:	e8 a8 2a 00 00       	call   802d43 <malloc>
		if (!args)
  80029b:	85 c0                	test   %eax,%eax
  80029d:	75 1c                	jne    8002bb <serve+0x15f>
			panic("could not allocate thread args structure");
  80029f:	c7 44 24 08 d8 25 81 	movl   $0x8125d8,0x8(%esp)
  8002a6:	00 
  8002a7:	c7 44 24 04 26 01 00 	movl   $0x126,0x4(%esp)
  8002ae:	00 
  8002af:	c7 04 24 ce 24 81 00 	movl   $0x8124ce,(%esp)
  8002b6:	e8 19 07 00 00       	call   8009d4 <_panic>

		args->reqno = reqno;
  8002bb:	89 30                	mov    %esi,(%eax)
		args->whom = whom;
  8002bd:	8b 55 e4             	mov    -0x1c(%ebp),%edx
  8002c0:	89 50 04             	mov    %edx,0x4(%eax)
		args->req = va;
  8002c3:	89 58 08             	mov    %ebx,0x8(%eax)

		thread_create(0, "serve_thread", serve_thread, (uint32_t)args);
  8002c6:	89 44 24 0c          	mov    %eax,0xc(%esp)
  8002ca:	c7 44 24 08 f5 02 80 	movl   $0x8002f5,0x8(%esp)
  8002d1:	00 
  8002d2:	c7 44 24 04 f2 24 81 	movl   $0x8124f2,0x4(%esp)
  8002d9:	00 
  8002da:	c7 04 24 00 00 00 00 	movl   $0x0,(%esp)
  8002e1:	e8 d1 dd 00 00       	call   80e0b7 <thread_create>
		thread_yield(); // let the thread created run
  8002e6:	e8 85 dc 00 00       	call   80df70 <thread_yield>
  8002eb:	bb 00 00 00 00       	mov    $0x0,%ebx
  8002f0:	e9 82 fe ff ff       	jmp    800177 <serve+0x1b>

008002f5 <serve_thread>:
	uint32_t whom;
	union Nsipc *req;
};

static void
serve_thread(uint32_t a) {
  8002f5:	55                   	push   %ebp
  8002f6:	89 e5                	mov    %esp,%ebp
  8002f8:	81 ec 98 00 00 00    	sub    $0x98,%esp
  8002fe:	89 5d f4             	mov    %ebx,-0xc(%ebp)
  800301:	89 75 f8             	mov    %esi,-0x8(%ebp)
  800304:	89 7d fc             	mov    %edi,-0x4(%ebp)
	struct st_args *args = (struct st_args *)a;
  800307:	8b 5d 08             	mov    0x8(%ebp),%ebx
	union Nsipc *req = args->req;
  80030a:	8b 73 08             	mov    0x8(%ebx),%esi
	int r;

	switch (args->reqno) {
  80030d:	83 3b 0a             	cmpl   $0xa,(%ebx)
  800310:	0f 87 34 01 00 00    	ja     80044a <serve_thread+0x155>
  800316:	8b 03                	mov    (%ebx),%eax
  800318:	ff 24 85 a4 26 81 00 	jmp    *0x8126a4(,%eax,4)
	case NSREQ_ACCEPT:
	{
		struct Nsret_accept ret;
		r = lwip_accept(req->accept.req_s, &ret.ret_addr,
  80031f:	8d 45 94             	lea    -0x6c(%ebp),%eax
  800322:	89 44 24 08          	mov    %eax,0x8(%esp)
  800326:	8d 45 84             	lea    -0x7c(%ebp),%eax
  800329:	89 44 24 04          	mov    %eax,0x4(%esp)
  80032d:	8b 06                	mov    (%esi),%eax
  80032f:	89 04 24             	mov    %eax,(%esp)
  800332:	e8 7b 4a 00 00       	call   804db2 <lwip_accept>
  800337:	89 c7                	mov    %eax,%edi
				&ret.ret_addrlen);
		memmove(req, &ret, sizeof ret);
  800339:	c7 44 24 08 14 00 00 	movl   $0x14,0x8(%esp)
  800340:	00 
  800341:	8d 45 84             	lea    -0x7c(%ebp),%eax
  800344:	89 44 24 04          	mov    %eax,0x4(%esp)
  800348:	89 34 24             	mov    %esi,(%esp)
  80034b:	e8 c5 0f 00 00       	call   801315 <memmove>
		break;
  800350:	e9 13 01 00 00       	jmp    800468 <serve_thread+0x173>
	}
	case NSREQ_BIND:
		r = lwip_bind(req->bind.req_s, &req->bind.req_name,
  800355:	8b 46 14             	mov    0x14(%esi),%eax
  800358:	89 44 24 08          	mov    %eax,0x8(%esp)
  80035c:	8d 46 04             	lea    0x4(%esi),%eax
  80035f:	89 44 24 04          	mov    %eax,0x4(%esp)
  800363:	8b 06                	mov    (%esi),%eax
  800365:	89 04 24             	mov    %eax,(%esp)
  800368:	e8 8c 49 00 00       	call   804cf9 <lwip_bind>
  80036d:	89 c7                	mov    %eax,%edi
			      req->bind.req_namelen);
		break;
  80036f:	e9 f4 00 00 00       	jmp    800468 <serve_thread+0x173>
	case NSREQ_SHUTDOWN:
		r = lwip_shutdown(req->shutdown.req_s, req->shutdown.req_how);
  800374:	8b 46 04             	mov    0x4(%esi),%eax
  800377:	89 44 24 04          	mov    %eax,0x4(%esp)
  80037b:	8b 06                	mov    (%esi),%eax
  80037d:	89 04 24             	mov    %eax,(%esp)
  800380:	e8 19 48 00 00       	call   804b9e <lwip_shutdown>
  800385:	89 c7                	mov    %eax,%edi
		break;
  800387:	e9 dc 00 00 00       	jmp    800468 <serve_thread+0x173>
	case NSREQ_CLOSE:
		r = lwip_close(req->close.req_s);
  80038c:	8b 06                	mov    (%esi),%eax
  80038e:	89 04 24             	mov    %eax,(%esp)
  800391:	e8 8c 47 00 00       	call   804b22 <lwip_close>
  800396:	89 c7                	mov    %eax,%edi
		break;
  800398:	e9 cb 00 00 00       	jmp    800468 <serve_thread+0x173>
	case NSREQ_CONNECT:
		r = lwip_connect(req->connect.req_s, &req->connect.req_name,
  80039d:	8b 46 14             	mov    0x14(%esi),%eax
  8003a0:	89 44 24 08          	mov    %eax,0x8(%esp)
  8003a4:	8d 46 04             	lea    0x4(%esi),%eax
  8003a7:	89 44 24 04          	mov    %eax,0x4(%esp)
  8003ab:	8b 06                	mov    (%esi),%eax
  8003ad:	89 04 24             	mov    %eax,(%esp)
  8003b0:	e8 8b 48 00 00       	call   804c40 <lwip_connect>
  8003b5:	89 c7                	mov    %eax,%edi
				 req->connect.req_namelen);
		break;
  8003b7:	e9 ac 00 00 00       	jmp    800468 <serve_thread+0x173>
	case NSREQ_LISTEN:
		r = lwip_listen(req->listen.req_s, req->listen.req_backlog);
  8003bc:	8b 46 04             	mov    0x4(%esi),%eax
  8003bf:	89 44 24 04          	mov    %eax,0x4(%esp)
  8003c3:	8b 06                	mov    (%esi),%eax
  8003c5:	89 04 24             	mov    %eax,(%esp)
  8003c8:	e8 e4 47 00 00       	call   804bb1 <lwip_listen>
  8003cd:	89 c7                	mov    %eax,%edi
		break;
  8003cf:	e9 94 00 00 00       	jmp    800468 <serve_thread+0x173>
	case NSREQ_RECV:
		// Note that we read the request fields before we
		// overwrite it with the response data.
		r = lwip_recv(req->recv.req_s, req->recvRet.ret_buf,
  8003d4:	8b 46 08             	mov    0x8(%esi),%eax
  8003d7:	89 44 24 0c          	mov    %eax,0xc(%esp)
  8003db:	8b 46 04             	mov    0x4(%esi),%eax
  8003de:	89 44 24 08          	mov    %eax,0x8(%esp)
  8003e2:	89 74 24 04          	mov    %esi,0x4(%esp)
  8003e6:	8b 06                	mov    (%esi),%eax
  8003e8:	89 04 24             	mov    %eax,(%esp)
  8003eb:	e8 c1 46 00 00       	call   804ab1 <lwip_recv>
  8003f0:	89 c7                	mov    %eax,%edi
			      req->recv.req_len, req->recv.req_flags);
		break;
  8003f2:	eb 74                	jmp    800468 <serve_thread+0x173>
	case NSREQ_SEND:
		r = lwip_send(req->send.req_s, &req->send.req_buf,
  8003f4:	8b 46 08             	mov    0x8(%esi),%eax
  8003f7:	89 44 24 0c          	mov    %eax,0xc(%esp)
  8003fb:	8b 46 04             	mov    0x4(%esi),%eax
  8003fe:	89 44 24 08          	mov    %eax,0x8(%esp)
  800402:	8d 46 0c             	lea    0xc(%esi),%eax
  800405:	89 44 24 04          	mov    %eax,0x4(%esp)
  800409:	8b 06                	mov    (%esi),%eax
  80040b:	89 04 24             	mov    %eax,(%esp)
  80040e:	e8 17 42 00 00       	call   80462a <lwip_send>
  800413:	89 c7                	mov    %eax,%edi
			      req->send.req_size, req->send.req_flags);
		break;
  800415:	eb 51                	jmp    800468 <serve_thread+0x173>
	case NSREQ_SOCKET:
		r = lwip_socket(req->socket.req_domain, req->socket.req_type,
  800417:	8b 46 08             	mov    0x8(%esi),%eax
  80041a:	89 44 24 08          	mov    %eax,0x8(%esp)
  80041e:	8b 46 04             	mov    0x4(%esi),%eax
  800421:	89 44 24 04          	mov    %eax,0x4(%esp)
  800425:	8b 06                	mov    (%esi),%eax
  800427:	89 04 24             	mov    %eax,(%esp)
  80042a:	e8 0d 41 00 00       	call   80453c <lwip_socket>
  80042f:	89 c7                	mov    %eax,%edi
				req->socket.req_protocol);
		break;
  800431:	eb 35                	jmp    800468 <serve_thread+0x173>
	case NSREQ_INPUT:
		jif_input(&nif, (void *)&req->pkt);
  800433:	89 74 24 04          	mov    %esi,0x4(%esp)
  800437:	c7 04 24 c0 f5 b3 00 	movl   $0xb3f5c0,(%esp)
  80043e:	e8 b7 e0 00 00       	call   80e4fa <jif_input>
  800443:	bf 00 00 00 00       	mov    $0x0,%edi
		r = 0;
		break;
  800448:	eb 4c                	jmp    800496 <serve_thread+0x1a1>
	default:
		cprintf("Invalid request code %d from %08x\n", args->whom, args->req);
  80044a:	89 74 24 08          	mov    %esi,0x8(%esp)
  80044e:	8b 43 04             	mov    0x4(%ebx),%eax
  800451:	89 44 24 04          	mov    %eax,0x4(%esp)
  800455:	c7 04 24 04 26 81 00 	movl   $0x812604,(%esp)
  80045c:	e8 38 06 00 00       	call   800a99 <cprintf>
  800461:	bf fd ff ff ff       	mov    $0xfffffffd,%edi
  800466:	eb 2e                	jmp    800496 <serve_thread+0x1a1>
		r = -E_INVAL;
		break;
	}

	if (r == -1) {
  800468:	83 ff ff             	cmp    $0xffffffff,%edi
  80046b:	75 29                	jne    800496 <serve_thread+0x1a1>
		char buf[100];
		snprintf(buf, sizeof buf, "ns req type %d", args->reqno);
  80046d:	8b 03                	mov    (%ebx),%eax
  80046f:	89 44 24 0c          	mov    %eax,0xc(%esp)
  800473:	c7 44 24 08 ff 24 81 	movl   $0x8124ff,0x8(%esp)
  80047a:	00 
  80047b:	c7 44 24 04 64 00 00 	movl   $0x64,0x4(%esp)
  800482:	00 
  800483:	8d 75 84             	lea    -0x7c(%ebp),%esi
  800486:	89 34 24             	mov    %esi,(%esp)
  800489:	e8 2e 0c 00 00       	call   8010bc <snprintf>
		perror(buf);
  80048e:	89 34 24             	mov    %esi,(%esp)
  800491:	e8 31 de 00 00       	call   80e2c7 <perror>
	}

	if (args->reqno != NSREQ_INPUT)
  800496:	83 3b 0a             	cmpl   $0xa,(%ebx)
  800499:	74 1f                	je     8004ba <serve_thread+0x1c5>
		ipc_send(args->whom, r, 0, 0);
  80049b:	c7 44 24 0c 00 00 00 	movl   $0x0,0xc(%esp)
  8004a2:	00 
  8004a3:	c7 44 24 08 00 00 00 	movl   $0x0,0x8(%esp)
  8004aa:	00 
  8004ab:	89 7c 24 04          	mov    %edi,0x4(%esp)
  8004af:	8b 43 04             	mov    0x4(%ebx),%eax
  8004b2:	89 04 24             	mov    %eax,(%esp)
  8004b5:	e8 76 19 00 00       	call   801e30 <ipc_send>

	put_buffer(args->req);
  8004ba:	8b 43 08             	mov    0x8(%ebx),%eax
  8004bd:	e8 7e fb ff ff       	call   800040 <put_buffer>
	sys_page_unmap(0, (void*) args->req);
  8004c2:	8b 43 08             	mov    0x8(%ebx),%eax
  8004c5:	89 44 24 04          	mov    %eax,0x4(%esp)
  8004c9:	c7 04 24 00 00 00 00 	movl   $0x0,(%esp)
  8004d0:	e8 ba 13 00 00       	call   80188f <sys_page_unmap>
	free(args);
  8004d5:	89 1c 24             	mov    %ebx,(%esp)
  8004d8:	e8 93 27 00 00       	call   802c70 <free>
}
  8004dd:	8b 5d f4             	mov    -0xc(%ebp),%ebx
  8004e0:	8b 75 f8             	mov    -0x8(%ebp),%esi
  8004e3:	8b 7d fc             	mov    -0x4(%ebp),%edi
  8004e6:	89 ec                	mov    %ebp,%esp
  8004e8:	5d                   	pop    %ebp
  8004e9:	c3                   	ret    

008004ea <net_timer>:
	netif_set_up(nif);
}

static void __attribute__((noreturn))
net_timer(uint32_t arg)
{
  8004ea:	55                   	push   %ebp
  8004eb:	89 e5                	mov    %esp,%ebp
  8004ed:	56                   	push   %esi
  8004ee:	53                   	push   %ebx
  8004ef:	83 ec 10             	sub    $0x10,%esp
	struct timer_thread *t = (struct timer_thread *) arg;
  8004f2:	8b 5d 08             	mov    0x8(%ebp),%ebx

	for (;;) {
		uint32_t cur = sys_time_msec();
  8004f5:	e8 b2 11 00 00       	call   8016ac <sys_time_msec>
  8004fa:	89 c6                	mov    %eax,%esi

		lwip_core_lock();
  8004fc:	e8 d8 d0 00 00       	call   80d5d9 <lwip_core_lock>
		t->func();
  800501:	ff 53 04             	call   *0x4(%ebx)
		lwip_core_unlock();
  800504:	e8 d5 d0 00 00       	call   80d5de <lwip_core_unlock>

		thread_wait(0, 0, cur + t->msec);
  800509:	03 33                	add    (%ebx),%esi
  80050b:	89 74 24 08          	mov    %esi,0x8(%esp)
  80050f:	c7 44 24 04 00 00 00 	movl   $0x0,0x4(%esp)
  800516:	00 
  800517:	c7 04 24 00 00 00 00 	movl   $0x0,(%esp)
  80051e:	e8 dc dc 00 00       	call   80e1ff <thread_wait>
  800523:	eb d0                	jmp    8004f5 <net_timer+0xb>

00800525 <start_timer>:
	}
}

static void
start_timer(struct timer_thread *t, void (*func)(void), const char *name, int msec)
{
  800525:	55                   	push   %ebp
  800526:	89 e5                	mov    %esp,%ebp
  800528:	53                   	push   %ebx
  800529:	83 ec 14             	sub    $0x14,%esp
	t->msec = msec;
  80052c:	8b 5d 08             	mov    0x8(%ebp),%ebx
  80052f:	89 18                	mov    %ebx,(%eax)
	t->func = func;
  800531:	89 50 04             	mov    %edx,0x4(%eax)
	t->name = name;
  800534:	89 48 08             	mov    %ecx,0x8(%eax)
	int r = thread_create(0, name, &net_timer, (uint32_t)t);
  800537:	89 44 24 0c          	mov    %eax,0xc(%esp)
  80053b:	c7 44 24 08 ea 04 80 	movl   $0x8004ea,0x8(%esp)
  800542:	00 
  800543:	89 4c 24 04          	mov    %ecx,0x4(%esp)
  800547:	c7 04 24 00 00 00 00 	movl   $0x0,(%esp)
  80054e:	e8 64 db 00 00       	call   80e0b7 <thread_create>
	if (r < 0)
  800553:	85 c0                	test   %eax,%eax
  800555:	79 28                	jns    80057f <start_timer+0x5a>
		panic("cannot create timer thread: %s", e2s(r));
  800557:	89 04 24             	mov    %eax,(%esp)
  80055a:	e8 59 dd 00 00       	call   80e2b8 <e2s>
  80055f:	89 44 24 0c          	mov    %eax,0xc(%esp)
  800563:	c7 44 24 08 28 26 81 	movl   $0x812628,0x8(%esp)
  80056a:	00 
  80056b:	c7 44 24 04 7a 00 00 	movl   $0x7a,0x4(%esp)
  800572:	00 
  800573:	c7 04 24 ce 24 81 00 	movl   $0x8124ce,(%esp)
  80057a:	e8 55 04 00 00       	call   8009d4 <_panic>
}
  80057f:	83 c4 14             	add    $0x14,%esp
  800582:	5b                   	pop    %ebx
  800583:	5d                   	pop    %ebp
  800584:	c3                   	ret    

00800585 <serve_init>:
	thread_wakeup(done);
}

void
serve_init(uint32_t ipaddr, uint32_t netmask, uint32_t gw)
{
  800585:	55                   	push   %ebp
  800586:	89 e5                	mov    %esp,%ebp
  800588:	56                   	push   %esi
  800589:	53                   	push   %ebx
  80058a:	83 ec 30             	sub    $0x30,%esp
  80058d:	8b 75 08             	mov    0x8(%ebp),%esi
	int r;
	lwip_core_lock();
  800590:	e8 44 d0 00 00       	call   80d5d9 <lwip_core_lock>

	uint32_t done = 0;
  800595:	c7 45 f4 00 00 00 00 	movl   $0x0,-0xc(%ebp)
	tcpip_init(&tcpip_init_done, &done);
  80059c:	8d 5d f4             	lea    -0xc(%ebp),%ebx
  80059f:	89 5c 24 04          	mov    %ebx,0x4(%esp)
  8005a3:	c7 04 24 67 07 80 00 	movl   $0x800767,(%esp)
  8005aa:	e8 f4 49 00 00       	call   804fa3 <tcpip_init>
	lwip_core_unlock();
  8005af:	e8 2a d0 00 00       	call   80d5de <lwip_core_unlock>
	thread_wait(&done, 0, (uint32_t)~0);
  8005b4:	c7 44 24 08 ff ff ff 	movl   $0xffffffff,0x8(%esp)
  8005bb:	ff 
  8005bc:	c7 44 24 04 00 00 00 	movl   $0x0,0x4(%esp)
  8005c3:	00 
  8005c4:	89 1c 24             	mov    %ebx,(%esp)
  8005c7:	e8 33 dc 00 00       	call   80e1ff <thread_wait>
	lwip_core_lock();
  8005cc:	e8 08 d0 00 00       	call   80d5d9 <lwip_core_lock>
static void
lwip_init(struct netif *nif, void *if_state,
	  uint32_t init_addr, uint32_t init_mask, uint32_t init_gw)
{
	struct ip_addr ipaddr, netmask, gateway;
	ipaddr.addr  = init_addr;
  8005d1:	89 75 f0             	mov    %esi,-0x10(%ebp)
	netmask.addr = init_mask;
  8005d4:	8b 45 0c             	mov    0xc(%ebp),%eax
  8005d7:	89 45 ec             	mov    %eax,-0x14(%ebp)
	gateway.addr = init_gw;
  8005da:	8b 45 10             	mov    0x10(%ebp),%eax
  8005dd:	89 45 e8             	mov    %eax,-0x18(%ebp)

	if (0 == netif_add(nif, &ipaddr, &netmask, &gateway,
  8005e0:	c7 44 24 18 14 9c 80 	movl   $0x809c14,0x18(%esp)
  8005e7:	00 
  8005e8:	c7 44 24 14 00 e3 80 	movl   $0x80e300,0x14(%esp)
  8005ef:	00 
  8005f0:	c7 44 24 10 ac 93 81 	movl   $0x8193ac,0x10(%esp)
  8005f7:	00 
  8005f8:	8d 45 e8             	lea    -0x18(%ebp),%eax
  8005fb:	89 44 24 0c          	mov    %eax,0xc(%esp)
  8005ff:	8d 45 ec             	lea    -0x14(%ebp),%eax
  800602:	89 44 24 08          	mov    %eax,0x8(%esp)
  800606:	8d 45 f0             	lea    -0x10(%ebp),%eax
  800609:	89 44 24 04          	mov    %eax,0x4(%esp)
  80060d:	c7 04 24 c0 f5 b3 00 	movl   $0xb3f5c0,(%esp)
  800614:	e8 48 74 00 00       	call   807a61 <netif_add>
  800619:	85 c0                	test   %eax,%eax
  80061b:	75 1c                	jne    800639 <serve_init+0xb4>
			   if_state,
			   jif_init,
			   ip_input))
		panic("lwip_init: error in netif_add\n");
  80061d:	c7 44 24 08 48 26 81 	movl   $0x812648,0x8(%esp)
  800624:	00 
  800625:	c7 44 24 04 5c 00 00 	movl   $0x5c,0x4(%esp)
  80062c:	00 
  80062d:	c7 04 24 ce 24 81 00 	movl   $0x8124ce,(%esp)
  800634:	e8 9b 03 00 00       	call   8009d4 <_panic>

	netif_set_default(nif);
  800639:	c7 04 24 c0 f5 b3 00 	movl   $0xb3f5c0,(%esp)
  800640:	e8 9c 72 00 00       	call   8078e1 <netif_set_default>
	netif_set_up(nif);
  800645:	c7 04 24 c0 f5 b3 00 	movl   $0xb3f5c0,(%esp)
  80064c:	e8 1d 73 00 00       	call   80796e <netif_set_up>
	thread_wait(&done, 0, (uint32_t)~0);
	lwip_core_lock();

	lwip_init(&nif, &output_envid, ipaddr, netmask, gw);

	start_timer(&t_arp, &etharp_tmr, "arp timer", ARP_TMR_INTERVAL);
  800651:	c7 04 24 88 13 00 00 	movl   $0x1388,(%esp)
  800658:	b9 0e 25 81 00       	mov    $0x81250e,%ecx
  80065d:	ba 7c d0 80 00       	mov    $0x80d07c,%edx
  800662:	b8 80 93 81 00       	mov    $0x819380,%eax
  800667:	e8 b9 fe ff ff       	call   800525 <start_timer>
	start_timer(&t_tcpf, &tcp_fasttmr, "tcp f timer", TCP_FAST_INTERVAL);
  80066c:	c7 04 24 fa 00 00 00 	movl   $0xfa,(%esp)
  800673:	b9 18 25 81 00       	mov    $0x812518,%ecx
  800678:	ba 0b 8a 80 00       	mov    $0x808a0b,%edx
  80067d:	b8 8c 93 81 00       	mov    $0x81938c,%eax
  800682:	e8 9e fe ff ff       	call   800525 <start_timer>
	start_timer(&t_tcps, &tcp_slowtmr, "tcp s timer", TCP_SLOW_INTERVAL);
  800687:	c7 04 24 f4 01 00 00 	movl   $0x1f4,(%esp)
  80068e:	b9 24 25 81 00       	mov    $0x812524,%ecx
  800693:	ba 3e 93 80 00       	mov    $0x80933e,%edx
  800698:	b8 98 93 81 00       	mov    $0x819398,%eax
  80069d:	e8 83 fe ff ff       	call   800525 <start_timer>

	struct in_addr ia = {ipaddr};
	cprintf("ns: %02x:%02x:%02x:%02x:%02x:%02x" 
  8006a2:	89 34 24             	mov    %esi,(%esp)
  8006a5:	e8 e6 a5 00 00       	call   80ac90 <inet_ntoa>
  8006aa:	89 44 24 1c          	mov    %eax,0x1c(%esp)
  8006ae:	0f b6 05 ea f5 b3 00 	movzbl 0xb3f5ea,%eax
  8006b5:	89 44 24 18          	mov    %eax,0x18(%esp)
  8006b9:	0f b6 05 e9 f5 b3 00 	movzbl 0xb3f5e9,%eax
  8006c0:	89 44 24 14          	mov    %eax,0x14(%esp)
  8006c4:	0f b6 05 e8 f5 b3 00 	movzbl 0xb3f5e8,%eax
  8006cb:	89 44 24 10          	mov    %eax,0x10(%esp)
  8006cf:	0f b6 05 e7 f5 b3 00 	movzbl 0xb3f5e7,%eax
  8006d6:	89 44 24 0c          	mov    %eax,0xc(%esp)
  8006da:	0f b6 05 e6 f5 b3 00 	movzbl 0xb3f5e6,%eax
  8006e1:	89 44 24 08          	mov    %eax,0x8(%esp)
  8006e5:	0f b6 05 e5 f5 b3 00 	movzbl 0xb3f5e5,%eax
  8006ec:	89 44 24 04          	mov    %eax,0x4(%esp)
  8006f0:	c7 04 24 68 26 81 00 	movl   $0x812668,(%esp)
  8006f7:	e8 9d 03 00 00       	call   800a99 <cprintf>
		" bound to static IP %s\n", 
		nif.hwaddr[0], nif.hwaddr[1], nif.hwaddr[2],
		nif.hwaddr[3], nif.hwaddr[4], nif.hwaddr[5],
		inet_ntoa(ia));

	lwip_core_unlock();
  8006fc:	e8 dd ce 00 00       	call   80d5de <lwip_core_unlock>

	cprintf("NS: TCP/IP initialized.\n");
  800701:	c7 04 24 30 25 81 00 	movl   $0x812530,(%esp)
  800708:	e8 8c 03 00 00       	call   800a99 <cprintf>
}
  80070d:	83 c4 30             	add    $0x30,%esp
  800710:	5b                   	pop    %ebx
  800711:	5e                   	pop    %esi
  800712:	5d                   	pop    %ebp
  800713:	c3                   	ret    

00800714 <tmain>:
		thread_yield(); // let the thread created run
	}
}

static void
tmain(uint32_t arg) {
  800714:	55                   	push   %ebp
  800715:	89 e5                	mov    %esp,%ebp
  800717:	83 ec 18             	sub    $0x18,%esp
  80071a:	89 5d f8             	mov    %ebx,-0x8(%ebp)
  80071d:	89 75 fc             	mov    %esi,-0x4(%ebp)
	serve_init(inet_addr(IP),
  800720:	c7 04 24 49 25 81 00 	movl   $0x812549,(%esp)
  800727:	e8 4c a8 00 00       	call   80af78 <inet_addr>
  80072c:	89 c3                	mov    %eax,%ebx
  80072e:	c7 04 24 52 25 81 00 	movl   $0x812552,(%esp)
  800735:	e8 3e a8 00 00       	call   80af78 <inet_addr>
  80073a:	89 c6                	mov    %eax,%esi
  80073c:	c7 04 24 60 25 81 00 	movl   $0x812560,(%esp)
  800743:	e8 30 a8 00 00       	call   80af78 <inet_addr>
  800748:	89 5c 24 08          	mov    %ebx,0x8(%esp)
  80074c:	89 74 24 04          	mov    %esi,0x4(%esp)
  800750:	89 04 24             	mov    %eax,(%esp)
  800753:	e8 2d fe ff ff       	call   800585 <serve_init>
		   inet_addr(MASK),
		   inet_addr(DEFAULT));
	serve();
  800758:	e8 ff f9 ff ff       	call   80015c <serve>
}
  80075d:	8b 5d f8             	mov    -0x8(%ebp),%ebx
  800760:	8b 75 fc             	mov    -0x4(%ebp),%esi
  800763:	89 ec                	mov    %ebp,%esp
  800765:	5d                   	pop    %ebp
  800766:	c3                   	ret    

00800767 <tcpip_init_done>:
		panic("cannot create timer thread: %s", e2s(r));
}

static void
tcpip_init_done(void *arg)
{
  800767:	55                   	push   %ebp
  800768:	89 e5                	mov    %esp,%ebp
  80076a:	83 ec 18             	sub    $0x18,%esp
  80076d:	8b 45 08             	mov    0x8(%ebp),%eax
	uint32_t *done = arg;
	*done = 1;
  800770:	c7 00 01 00 00 00    	movl   $0x1,(%eax)
	thread_wakeup(done);
  800776:	89 04 24             	mov    %eax,(%esp)
  800779:	e8 81 d7 00 00       	call   80deff <thread_wakeup>
}
  80077e:	c9                   	leave  
  80077f:	c3                   	ret    

00800780 <timer>:
#include "ns.h"

void
timer(envid_t ns_envid, uint32_t initial_to) {
  800780:	55                   	push   %ebp
  800781:	89 e5                	mov    %esp,%ebp
  800783:	57                   	push   %edi
  800784:	56                   	push   %esi
  800785:	53                   	push   %ebx
  800786:	83 ec 2c             	sub    $0x2c,%esp
  800789:	8b 75 08             	mov    0x8(%ebp),%esi
	uint32_t stop = sys_time_msec() + initial_to;
  80078c:	e8 1b 0f 00 00       	call   8016ac <sys_time_msec>
  800791:	89 c3                	mov    %eax,%ebx
  800793:	03 5d 0c             	add    0xc(%ebp),%ebx

	binaryname = "ns_timer";
  800796:	c7 05 00 90 81 00 d0 	movl   $0x8126d0,0x819000
  80079d:	26 81 00 

		ipc_send(ns_envid, NSREQ_TIMER, 0, 0);

		while (1) {
			uint32_t to, whom;
			to = ipc_recv((int32_t *) &whom, 0, 0);
  8007a0:	8d 7d e4             	lea    -0x1c(%ebp),%edi
  8007a3:	eb 05                	jmp    8007aa <timer+0x2a>

	binaryname = "ns_timer";

	while (1) {
		while(sys_time_msec() < stop) {
			sys_yield();
  8007a5:	e8 00 12 00 00       	call   8019aa <sys_yield>
	uint32_t stop = sys_time_msec() + initial_to;

	binaryname = "ns_timer";

	while (1) {
		while(sys_time_msec() < stop) {
  8007aa:	e8 fd 0e 00 00       	call   8016ac <sys_time_msec>
  8007af:	39 c3                	cmp    %eax,%ebx
  8007b1:	77 f2                	ja     8007a5 <timer+0x25>
			sys_yield();
		}

		ipc_send(ns_envid, NSREQ_TIMER, 0, 0);
  8007b3:	c7 44 24 0c 00 00 00 	movl   $0x0,0xc(%esp)
  8007ba:	00 
  8007bb:	c7 44 24 08 00 00 00 	movl   $0x0,0x8(%esp)
  8007c2:	00 
  8007c3:	c7 44 24 04 0c 00 00 	movl   $0xc,0x4(%esp)
  8007ca:	00 
  8007cb:	89 34 24             	mov    %esi,(%esp)
  8007ce:	e8 5d 16 00 00       	call   801e30 <ipc_send>

		while (1) {
			uint32_t to, whom;
			to = ipc_recv((int32_t *) &whom, 0, 0);
  8007d3:	c7 44 24 08 00 00 00 	movl   $0x0,0x8(%esp)
  8007da:	00 
  8007db:	c7 44 24 04 00 00 00 	movl   $0x0,0x4(%esp)
  8007e2:	00 
  8007e3:	89 3c 24             	mov    %edi,(%esp)
  8007e6:	e8 ab 16 00 00       	call   801e96 <ipc_recv>
  8007eb:	89 c3                	mov    %eax,%ebx

			if (whom != ns_envid) {
  8007ed:	8b 45 e4             	mov    -0x1c(%ebp),%eax
  8007f0:	39 c6                	cmp    %eax,%esi
  8007f2:	74 12                	je     800806 <timer+0x86>
				cprintf("NS TIMER: timer thread got IPC message from env %x not NS\n", whom);
  8007f4:	89 44 24 04          	mov    %eax,0x4(%esp)
  8007f8:	c7 04 24 dc 26 81 00 	movl   $0x8126dc,(%esp)
  8007ff:	e8 95 02 00 00       	call   800a99 <cprintf>
				continue;
			}

			stop = sys_time_msec() + to;
			break;
		}
  800804:	eb cd                	jmp    8007d3 <timer+0x53>
			if (whom != ns_envid) {
				cprintf("NS TIMER: timer thread got IPC message from env %x not NS\n", whom);
				continue;
			}

			stop = sys_time_msec() + to;
  800806:	e8 a1 0e 00 00       	call   8016ac <sys_time_msec>
  80080b:	8d 1c 18             	lea    (%eax,%ebx,1),%ebx
  80080e:	66 90                	xchg   %ax,%ax
  800810:	eb 98                	jmp    8007aa <timer+0x2a>
	...

00800820 <input>:

extern union Nsipc nsipcbuf;

void
input(envid_t ns_envid)
{
  800820:	55                   	push   %ebp
  800821:	89 e5                	mov    %esp,%ebp
  800823:	53                   	push   %ebx
  800824:	83 ec 14             	sub    $0x14,%esp
  800827:	8b 5d 08             	mov    0x8(%ebp),%ebx
	binaryname = "ns_input";
  80082a:	c7 05 00 90 81 00 17 	movl   $0x812717,0x819000
  800831:	27 81 00 
	int len;

	while (1)
	{

		if (sys_page_alloc(0, &nsipcbuf, PTE_U | PTE_P | PTE_W) < 0)
  800834:	c7 44 24 08 07 00 00 	movl   $0x7,0x8(%esp)
  80083b:	00 
  80083c:	c7 44 24 04 00 80 81 	movl   $0x818000,0x4(%esp)
  800843:	00 
  800844:	c7 04 24 00 00 00 00 	movl   $0x0,(%esp)
  80084b:	e8 fb 10 00 00       	call   80194b <sys_page_alloc>
  800850:	85 c0                	test   %eax,%eax
  800852:	79 0e                	jns    800862 <input+0x42>
		{
			cprintf("\n input.c: error in sys_page_alloc");
  800854:	c7 04 24 3c 27 81 00 	movl   $0x81273c,(%esp)
  80085b:	e8 39 02 00 00       	call   800a99 <cprintf>
			continue;
  800860:	eb d2                	jmp    800834 <input+0x14>
		}
		len = sys_receive_packet(nsipcbuf.pkt.jp_data);
  800862:	c7 04 24 04 80 81 00 	movl   $0x818004,(%esp)
  800869:	e8 ab 0d 00 00       	call   801619 <sys_receive_packet>
		if (len < 0)
  80086e:	85 c0                	test   %eax,%eax
  800870:	79 13                	jns    800885 <input+0x65>
		{
			// there was an error in sys_receive_packet, print the message and continue
			cprintf("\n input.c: error in receive");	
  800872:	c7 04 24 20 27 81 00 	movl   $0x812720,(%esp)
  800879:	e8 1b 02 00 00       	call   800a99 <cprintf>
			sys_yield();
  80087e:	e8 27 11 00 00       	call   8019aa <sys_yield>
			continue;
  800883:	eb af                	jmp    800834 <input+0x14>
		}
		else if (len == 0)
  800885:	85 c0                	test   %eax,%eax
  800887:	75 0e                	jne    800897 <input+0x77>
		{
			// nothing was received, continue
			sys_yield();
  800889:	8d b4 26 00 00 00 00 	lea    0x0(%esi,%eiz,1),%esi
  800890:	e8 15 11 00 00       	call   8019aa <sys_yield>
			continue;
  800895:	eb 9d                	jmp    800834 <input+0x14>
		}
		else 
		{
			//cprintf("\n input.c: ipc_send");
			nsipcbuf.pkt.jp_len = len;	
  800897:	a3 00 80 81 00       	mov    %eax,0x818000
			ipc_send(ns_envid, NSREQ_INPUT, &nsipcbuf, PTE_P | PTE_U | PTE_W);
  80089c:	c7 44 24 0c 07 00 00 	movl   $0x7,0xc(%esp)
  8008a3:	00 
  8008a4:	c7 44 24 08 00 80 81 	movl   $0x818000,0x8(%esp)
  8008ab:	00 
  8008ac:	c7 44 24 04 0a 00 00 	movl   $0xa,0x4(%esp)
  8008b3:	00 
  8008b4:	89 1c 24             	mov    %ebx,(%esp)
  8008b7:	e8 74 15 00 00       	call   801e30 <ipc_send>
		}
		sys_page_unmap(0, &nsipcbuf);
  8008bc:	c7 44 24 04 00 80 81 	movl   $0x818000,0x4(%esp)
  8008c3:	00 
  8008c4:	c7 04 24 00 00 00 00 	movl   $0x0,(%esp)
  8008cb:	e8 bf 0f 00 00       	call   80188f <sys_page_unmap>
  8008d0:	e9 5f ff ff ff       	jmp    800834 <input+0x14>
	...

008008e0 <output>:

extern union Nsipc nsipcbuf;

void
output(envid_t ns_envid)
{
  8008e0:	55                   	push   %ebp
  8008e1:	89 e5                	mov    %esp,%ebp
  8008e3:	57                   	push   %edi
  8008e4:	56                   	push   %esi
  8008e5:	53                   	push   %ebx
  8008e6:	83 ec 2c             	sub    $0x2c,%esp
  8008e9:	8b 7d 08             	mov    0x8(%ebp),%edi
	binaryname = "ns_output";
  8008ec:	c7 05 00 90 81 00 5f 	movl   $0x81275f,0x819000
  8008f3:	27 81 00 
	uint32_t request;
	int perm;
	while(1)
	{
		perm = 0;
		request = ipc_recv(&from_env, (void*)&nsipcbuf, &perm);
  8008f6:	8d 5d e0             	lea    -0x20(%ebp),%ebx
  8008f9:	8d 75 e4             	lea    -0x1c(%ebp),%esi
	envid_t from_env;
	uint32_t request;
	int perm;
	while(1)
	{
		perm = 0;
  8008fc:	c7 45 e0 00 00 00 00 	movl   $0x0,-0x20(%ebp)
		request = ipc_recv(&from_env, (void*)&nsipcbuf, &perm);
  800903:	89 5c 24 08          	mov    %ebx,0x8(%esp)
  800907:	c7 44 24 04 00 80 81 	movl   $0x818000,0x4(%esp)
  80090e:	00 
  80090f:	89 34 24             	mov    %esi,(%esp)
  800912:	e8 7f 15 00 00       	call   801e96 <ipc_recv>
		if (!(perm & PTE_P))
  800917:	f6 45 e0 01          	testb  $0x1,-0x20(%ebp)
  80091b:	75 0e                	jne    80092b <output+0x4b>
		{
			cprintf("\n output.c : Page not present! ");
  80091d:	c7 04 24 6c 27 81 00 	movl   $0x81276c,(%esp)
  800924:	e8 70 01 00 00       	call   800a99 <cprintf>
			continue;
  800929:	eb d1                	jmp    8008fc <output+0x1c>
		}
		if (from_env != ns_envid)
  80092b:	39 7d e4             	cmp    %edi,-0x1c(%ebp)
  80092e:	74 0e                	je     80093e <output+0x5e>
		{
			cprintf("\n output.c : Request received from bogus environment! ");
  800930:	c7 04 24 8c 27 81 00 	movl   $0x81278c,(%esp)
  800937:	e8 5d 01 00 00       	call   800a99 <cprintf>
			continue;
  80093c:	eb be                	jmp    8008fc <output+0x1c>
		}
		if (request == NSREQ_OUTPUT)
  80093e:	83 f8 0b             	cmp    $0xb,%eax
  800941:	75 17                	jne    80095a <output+0x7a>
		{	
			sys_transmit_packet(nsipcbuf.pkt.jp_data, nsipcbuf.pkt.jp_len);
  800943:	a1 00 80 81 00       	mov    0x818000,%eax
  800948:	89 44 24 04          	mov    %eax,0x4(%esp)
  80094c:	c7 04 24 04 80 81 00 	movl   $0x818004,(%esp)
  800953:	e8 f6 0c 00 00       	call   80164e <sys_transmit_packet>
  800958:	eb a2                	jmp    8008fc <output+0x1c>
		}
		else
			cprintf("\n output.c : Invalid request received! ");
  80095a:	c7 04 24 c4 27 81 00 	movl   $0x8127c4,(%esp)
  800961:	e8 33 01 00 00       	call   800a99 <cprintf>
  800966:	eb 94                	jmp    8008fc <output+0x1c>

00800968 <libmain>:
volatile struct Env *env;
char *binaryname = "(PROGRAM NAME UNKNOWN)";

void
libmain(int argc, char **argv)
{
  800968:	55                   	push   %ebp
  800969:	89 e5                	mov    %esp,%ebp
  80096b:	83 ec 18             	sub    $0x18,%esp
  80096e:	89 5d f8             	mov    %ebx,-0x8(%ebp)
  800971:	89 75 fc             	mov    %esi,-0x4(%ebp)
  800974:	8b 75 08             	mov    0x8(%ebp),%esi
  800977:	8b 5d 0c             	mov    0xc(%ebp),%ebx
	// set env to point at our env structure in envs[].
	// LAB 3b: Your code here.
	// Code added by Swastika / Sandeep	
	envid_t envid = sys_getenvid();
  80097a:	e8 5f 10 00 00       	call   8019de <sys_getenvid>
	env = &envs[ENVX(envid)];
  80097f:	25 ff 03 00 00       	and    $0x3ff,%eax
  800984:	6b c0 7c             	imul   $0x7c,%eax,%eax
  800987:	05 00 00 c0 ee       	add    $0xeec00000,%eax
  80098c:	a3 f4 f5 b3 00       	mov    %eax,0xb3f5f4

	// save the name of the program so that panic() can use it
	if (argc > 0)
  800991:	85 f6                	test   %esi,%esi
  800993:	7e 07                	jle    80099c <libmain+0x34>
		binaryname = argv[0];
  800995:	8b 03                	mov    (%ebx),%eax
  800997:	a3 00 90 81 00       	mov    %eax,0x819000

	// call user main routine
	umain(argc, argv);
  80099c:	89 5c 24 04          	mov    %ebx,0x4(%esp)
  8009a0:	89 34 24             	mov    %esi,(%esp)
  8009a3:	e8 b0 f6 ff ff       	call   800058 <umain>

	// exit gracefully
	exit();
  8009a8:	e8 0b 00 00 00       	call   8009b8 <exit>
}
  8009ad:	8b 5d f8             	mov    -0x8(%ebp),%ebx
  8009b0:	8b 75 fc             	mov    -0x4(%ebp),%esi
  8009b3:	89 ec                	mov    %ebp,%esp
  8009b5:	5d                   	pop    %ebp
  8009b6:	c3                   	ret    
	...

008009b8 <exit>:
#include <inc/lib.h>

void
exit(void)
{
  8009b8:	55                   	push   %ebp
  8009b9:	89 e5                	mov    %esp,%ebp
  8009bb:	83 ec 18             	sub    $0x18,%esp
	close_all();
  8009be:	e8 18 1a 00 00       	call   8023db <close_all>
	sys_env_destroy(0);
  8009c3:	c7 04 24 00 00 00 00 	movl   $0x0,(%esp)
  8009ca:	e8 43 10 00 00       	call   801a12 <sys_env_destroy>
}
  8009cf:	c9                   	leave  
  8009d0:	c3                   	ret    
  8009d1:	00 00                	add    %al,(%eax)
	...

008009d4 <_panic>:
 * It prints "panic: <message>", then causes a breakpoint exception,
 * which causes JOS to enter the JOS kernel monitor.
 */
void
_panic(const char *file, int line, const char *fmt,...)
{
  8009d4:	55                   	push   %ebp
  8009d5:	89 e5                	mov    %esp,%ebp
  8009d7:	53                   	push   %ebx
  8009d8:	83 ec 14             	sub    $0x14,%esp
 * Panic is called on unresolvable fatal errors.
 * It prints "panic: <message>", then causes a breakpoint exception,
 * which causes JOS to enter the JOS kernel monitor.
 */
void
_panic(const char *file, int line, const char *fmt,...)
  8009db:	8d 5d 14             	lea    0x14(%ebp),%ebx
	va_list ap;

	va_start(ap, fmt);

	// Print the panic message
	if (argv0)
  8009de:	a1 f8 f5 b3 00       	mov    0xb3f5f8,%eax
  8009e3:	85 c0                	test   %eax,%eax
  8009e5:	74 10                	je     8009f7 <_panic+0x23>
		cprintf("%s: ", argv0);
  8009e7:	89 44 24 04          	mov    %eax,0x4(%esp)
  8009eb:	c7 04 24 03 28 81 00 	movl   $0x812803,(%esp)
  8009f2:	e8 a2 00 00 00       	call   800a99 <cprintf>
	cprintf("user panic in %s at %s:%d: ", binaryname, file, line);
  8009f7:	8b 45 0c             	mov    0xc(%ebp),%eax
  8009fa:	89 44 24 0c          	mov    %eax,0xc(%esp)
  8009fe:	8b 45 08             	mov    0x8(%ebp),%eax
  800a01:	89 44 24 08          	mov    %eax,0x8(%esp)
  800a05:	a1 00 90 81 00       	mov    0x819000,%eax
  800a0a:	89 44 24 04          	mov    %eax,0x4(%esp)
  800a0e:	c7 04 24 08 28 81 00 	movl   $0x812808,(%esp)
  800a15:	e8 7f 00 00 00       	call   800a99 <cprintf>
	vcprintf(fmt, ap);
  800a1a:	89 5c 24 04          	mov    %ebx,0x4(%esp)
  800a1e:	8b 45 10             	mov    0x10(%ebp),%eax
  800a21:	89 04 24             	mov    %eax,(%esp)
  800a24:	e8 0f 00 00 00       	call   800a38 <vcprintf>
	cprintf("\n");
  800a29:	c7 04 24 47 25 81 00 	movl   $0x812547,(%esp)
  800a30:	e8 64 00 00 00       	call   800a99 <cprintf>

	// Cause a breakpoint exception
	while (1)
		asm volatile("int3");
  800a35:	cc                   	int3   
  800a36:	eb fd                	jmp    800a35 <_panic+0x61>

00800a38 <vcprintf>:
	b->cnt++;
}

int
vcprintf(const char *fmt, va_list ap)
{
  800a38:	55                   	push   %ebp
  800a39:	89 e5                	mov    %esp,%ebp
  800a3b:	81 ec 28 01 00 00    	sub    $0x128,%esp
	struct printbuf b;

	b.idx = 0;
  800a41:	c7 85 f0 fe ff ff 00 	movl   $0x0,-0x110(%ebp)
  800a48:	00 00 00 
	b.cnt = 0;
  800a4b:	c7 85 f4 fe ff ff 00 	movl   $0x0,-0x10c(%ebp)
  800a52:	00 00 00 
	vprintfmt((void*)putch, &b, fmt, ap);
  800a55:	8b 45 0c             	mov    0xc(%ebp),%eax
  800a58:	89 44 24 0c          	mov    %eax,0xc(%esp)
  800a5c:	8b 45 08             	mov    0x8(%ebp),%eax
  800a5f:	89 44 24 08          	mov    %eax,0x8(%esp)
  800a63:	8d 85 f0 fe ff ff    	lea    -0x110(%ebp),%eax
  800a69:	89 44 24 04          	mov    %eax,0x4(%esp)
  800a6d:	c7 04 24 b3 0a 80 00 	movl   $0x800ab3,(%esp)
  800a74:	e8 d4 01 00 00       	call   800c4d <vprintfmt>
	sys_cputs(b.buf, b.idx);
  800a79:	8b 85 f0 fe ff ff    	mov    -0x110(%ebp),%eax
  800a7f:	89 44 24 04          	mov    %eax,0x4(%esp)
  800a83:	8d 85 f8 fe ff ff    	lea    -0x108(%ebp),%eax
  800a89:	89 04 24             	mov    %eax,(%esp)
  800a8c:	e8 bf 0a 00 00       	call   801550 <sys_cputs>

	return b.cnt;
}
  800a91:	8b 85 f4 fe ff ff    	mov    -0x10c(%ebp),%eax
  800a97:	c9                   	leave  
  800a98:	c3                   	ret    

00800a99 <cprintf>:

int
cprintf(const char *fmt, ...)
{
  800a99:	55                   	push   %ebp
  800a9a:	89 e5                	mov    %esp,%ebp
  800a9c:	83 ec 18             	sub    $0x18,%esp

	return b.cnt;
}

int
cprintf(const char *fmt, ...)
  800a9f:	8d 45 0c             	lea    0xc(%ebp),%eax
{
	va_list ap;
	int cnt;

	va_start(ap, fmt);
	cnt = vcprintf(fmt, ap);
  800aa2:	89 44 24 04          	mov    %eax,0x4(%esp)
  800aa6:	8b 45 08             	mov    0x8(%ebp),%eax
  800aa9:	89 04 24             	mov    %eax,(%esp)
  800aac:	e8 87 ff ff ff       	call   800a38 <vcprintf>
	va_end(ap);

	return cnt;
}
  800ab1:	c9                   	leave  
  800ab2:	c3                   	ret    

00800ab3 <putch>:
};


static void
putch(int ch, struct printbuf *b)
{
  800ab3:	55                   	push   %ebp
  800ab4:	89 e5                	mov    %esp,%ebp
  800ab6:	53                   	push   %ebx
  800ab7:	83 ec 14             	sub    $0x14,%esp
  800aba:	8b 5d 0c             	mov    0xc(%ebp),%ebx
	b->buf[b->idx++] = ch;
  800abd:	8b 03                	mov    (%ebx),%eax
  800abf:	8b 55 08             	mov    0x8(%ebp),%edx
  800ac2:	88 54 03 08          	mov    %dl,0x8(%ebx,%eax,1)
  800ac6:	83 c0 01             	add    $0x1,%eax
  800ac9:	89 03                	mov    %eax,(%ebx)
	if (b->idx == 256-1) {
  800acb:	3d ff 00 00 00       	cmp    $0xff,%eax
  800ad0:	75 19                	jne    800aeb <putch+0x38>
		sys_cputs(b->buf, b->idx);
  800ad2:	c7 44 24 04 ff 00 00 	movl   $0xff,0x4(%esp)
  800ad9:	00 
  800ada:	8d 43 08             	lea    0x8(%ebx),%eax
  800add:	89 04 24             	mov    %eax,(%esp)
  800ae0:	e8 6b 0a 00 00       	call   801550 <sys_cputs>
		b->idx = 0;
  800ae5:	c7 03 00 00 00 00    	movl   $0x0,(%ebx)
	}
	b->cnt++;
  800aeb:	83 43 04 01          	addl   $0x1,0x4(%ebx)
}
  800aef:	83 c4 14             	add    $0x14,%esp
  800af2:	5b                   	pop    %ebx
  800af3:	5d                   	pop    %ebp
  800af4:	c3                   	ret    
	...

00800b00 <printnum>:
 * using specified putch function and associated pointer putdat.
 */
static void
printnum(void (*putch)(int, void*), void *putdat,
	 unsigned long long num, unsigned base, int width, int padc)
{
  800b00:	55                   	push   %ebp
  800b01:	89 e5                	mov    %esp,%ebp
  800b03:	57                   	push   %edi
  800b04:	56                   	push   %esi
  800b05:	53                   	push   %ebx
  800b06:	83 ec 4c             	sub    $0x4c,%esp
  800b09:	89 45 e4             	mov    %eax,-0x1c(%ebp)
  800b0c:	89 d6                	mov    %edx,%esi
  800b0e:	8b 45 08             	mov    0x8(%ebp),%eax
  800b11:	89 45 d8             	mov    %eax,-0x28(%ebp)
  800b14:	8b 55 0c             	mov    0xc(%ebp),%edx
  800b17:	89 55 e0             	mov    %edx,-0x20(%ebp)
  800b1a:	8b 45 10             	mov    0x10(%ebp),%eax
  800b1d:	8b 5d 14             	mov    0x14(%ebp),%ebx
  800b20:	8b 7d 18             	mov    0x18(%ebp),%edi
	// first recursively print all preceding (more significant) digits
	if (num >= base) {
  800b23:	89 45 dc             	mov    %eax,-0x24(%ebp)
  800b26:	b9 00 00 00 00       	mov    $0x0,%ecx
  800b2b:	39 d1                	cmp    %edx,%ecx
  800b2d:	72 15                	jb     800b44 <printnum+0x44>
  800b2f:	77 07                	ja     800b38 <printnum+0x38>
  800b31:	8b 55 d8             	mov    -0x28(%ebp),%edx
  800b34:	39 d0                	cmp    %edx,%eax
  800b36:	76 0c                	jbe    800b44 <printnum+0x44>
		printnum(putch, putdat, num / base, base, width - 1, padc);
	} else {
		// print any needed pad characters before first digit
		while (--width > 0)
  800b38:	83 eb 01             	sub    $0x1,%ebx
  800b3b:	85 db                	test   %ebx,%ebx
  800b3d:	8d 76 00             	lea    0x0(%esi),%esi
  800b40:	7f 61                	jg     800ba3 <printnum+0xa3>
  800b42:	eb 70                	jmp    800bb4 <printnum+0xb4>
printnum(void (*putch)(int, void*), void *putdat,
	 unsigned long long num, unsigned base, int width, int padc)
{
	// first recursively print all preceding (more significant) digits
	if (num >= base) {
		printnum(putch, putdat, num / base, base, width - 1, padc);
  800b44:	89 7c 24 10          	mov    %edi,0x10(%esp)
  800b48:	83 eb 01             	sub    $0x1,%ebx
  800b4b:	89 5c 24 0c          	mov    %ebx,0xc(%esp)
  800b4f:	89 44 24 08          	mov    %eax,0x8(%esp)
  800b53:	8b 4c 24 08          	mov    0x8(%esp),%ecx
  800b57:	8b 5c 24 0c          	mov    0xc(%esp),%ebx
  800b5b:	89 4d d0             	mov    %ecx,-0x30(%ebp)
  800b5e:	89 5d d4             	mov    %ebx,-0x2c(%ebp)
  800b61:	8b 5d dc             	mov    -0x24(%ebp),%ebx
  800b64:	89 5c 24 08          	mov    %ebx,0x8(%esp)
  800b68:	c7 44 24 0c 00 00 00 	movl   $0x0,0xc(%esp)
  800b6f:	00 
  800b70:	8b 45 d8             	mov    -0x28(%ebp),%eax
  800b73:	89 04 24             	mov    %eax,(%esp)
  800b76:	8b 55 e0             	mov    -0x20(%ebp),%edx
  800b79:	89 54 24 04          	mov    %edx,0x4(%esp)
  800b7d:	e8 ce 16 01 00       	call   812250 <__udivdi3>
  800b82:	8b 4d d0             	mov    -0x30(%ebp),%ecx
  800b85:	8b 5d d4             	mov    -0x2c(%ebp),%ebx
  800b88:	89 4c 24 08          	mov    %ecx,0x8(%esp)
  800b8c:	89 5c 24 0c          	mov    %ebx,0xc(%esp)
  800b90:	89 04 24             	mov    %eax,(%esp)
  800b93:	89 54 24 04          	mov    %edx,0x4(%esp)
  800b97:	89 f2                	mov    %esi,%edx
  800b99:	8b 45 e4             	mov    -0x1c(%ebp),%eax
  800b9c:	e8 5f ff ff ff       	call   800b00 <printnum>
  800ba1:	eb 11                	jmp    800bb4 <printnum+0xb4>
	} else {
		// print any needed pad characters before first digit
		while (--width > 0)
			putch(padc, putdat);
  800ba3:	89 74 24 04          	mov    %esi,0x4(%esp)
  800ba7:	89 3c 24             	mov    %edi,(%esp)
  800baa:	ff 55 e4             	call   *-0x1c(%ebp)
	// first recursively print all preceding (more significant) digits
	if (num >= base) {
		printnum(putch, putdat, num / base, base, width - 1, padc);
	} else {
		// print any needed pad characters before first digit
		while (--width > 0)
  800bad:	83 eb 01             	sub    $0x1,%ebx
  800bb0:	85 db                	test   %ebx,%ebx
  800bb2:	7f ef                	jg     800ba3 <printnum+0xa3>
			putch(padc, putdat);
	}

	// then print this (the least significant) digit
	putch("0123456789abcdef"[num % base], putdat);
  800bb4:	89 74 24 04          	mov    %esi,0x4(%esp)
  800bb8:	8b 74 24 04          	mov    0x4(%esp),%esi
  800bbc:	8b 45 dc             	mov    -0x24(%ebp),%eax
  800bbf:	89 44 24 08          	mov    %eax,0x8(%esp)
  800bc3:	c7 44 24 0c 00 00 00 	movl   $0x0,0xc(%esp)
  800bca:	00 
  800bcb:	8b 55 d8             	mov    -0x28(%ebp),%edx
  800bce:	89 14 24             	mov    %edx,(%esp)
  800bd1:	8b 4d e0             	mov    -0x20(%ebp),%ecx
  800bd4:	89 4c 24 04          	mov    %ecx,0x4(%esp)
  800bd8:	e8 a3 17 01 00       	call   812380 <__umoddi3>
  800bdd:	89 74 24 04          	mov    %esi,0x4(%esp)
  800be1:	0f be 80 24 28 81 00 	movsbl 0x812824(%eax),%eax
  800be8:	89 04 24             	mov    %eax,(%esp)
  800beb:	ff 55 e4             	call   *-0x1c(%ebp)
}
  800bee:	83 c4 4c             	add    $0x4c,%esp
  800bf1:	5b                   	pop    %ebx
  800bf2:	5e                   	pop    %esi
  800bf3:	5f                   	pop    %edi
  800bf4:	5d                   	pop    %ebp
  800bf5:	c3                   	ret    

00800bf6 <getuint>:

// Get an unsigned int of various possible sizes from a varargs list,
// depending on the lflag parameter.
static unsigned long long
getuint(va_list *ap, int lflag)
{
  800bf6:	55                   	push   %ebp
  800bf7:	89 e5                	mov    %esp,%ebp
	if (lflag >= 2)
  800bf9:	83 fa 01             	cmp    $0x1,%edx
  800bfc:	7e 0e                	jle    800c0c <getuint+0x16>
		return va_arg(*ap, unsigned long long);
  800bfe:	8b 10                	mov    (%eax),%edx
  800c00:	8d 4a 08             	lea    0x8(%edx),%ecx
  800c03:	89 08                	mov    %ecx,(%eax)
  800c05:	8b 02                	mov    (%edx),%eax
  800c07:	8b 52 04             	mov    0x4(%edx),%edx
  800c0a:	eb 22                	jmp    800c2e <getuint+0x38>
	else if (lflag)
  800c0c:	85 d2                	test   %edx,%edx
  800c0e:	74 10                	je     800c20 <getuint+0x2a>
		return va_arg(*ap, unsigned long);
  800c10:	8b 10                	mov    (%eax),%edx
  800c12:	8d 4a 04             	lea    0x4(%edx),%ecx
  800c15:	89 08                	mov    %ecx,(%eax)
  800c17:	8b 02                	mov    (%edx),%eax
  800c19:	ba 00 00 00 00       	mov    $0x0,%edx
  800c1e:	eb 0e                	jmp    800c2e <getuint+0x38>
	else
		return va_arg(*ap, unsigned int);
  800c20:	8b 10                	mov    (%eax),%edx
  800c22:	8d 4a 04             	lea    0x4(%edx),%ecx
  800c25:	89 08                	mov    %ecx,(%eax)
  800c27:	8b 02                	mov    (%edx),%eax
  800c29:	ba 00 00 00 00       	mov    $0x0,%edx
}
  800c2e:	5d                   	pop    %ebp
  800c2f:	c3                   	ret    

00800c30 <sprintputch>:
	int cnt;
};

static void
sprintputch(int ch, struct sprintbuf *b)
{
  800c30:	55                   	push   %ebp
  800c31:	89 e5                	mov    %esp,%ebp
  800c33:	8b 45 0c             	mov    0xc(%ebp),%eax
	b->cnt++;
  800c36:	83 40 08 01          	addl   $0x1,0x8(%eax)
	if (b->buf < b->ebuf)
  800c3a:	8b 10                	mov    (%eax),%edx
  800c3c:	3b 50 04             	cmp    0x4(%eax),%edx
  800c3f:	73 0a                	jae    800c4b <sprintputch+0x1b>
		*b->buf++ = ch;
  800c41:	8b 4d 08             	mov    0x8(%ebp),%ecx
  800c44:	88 0a                	mov    %cl,(%edx)
  800c46:	83 c2 01             	add    $0x1,%edx
  800c49:	89 10                	mov    %edx,(%eax)
}
  800c4b:	5d                   	pop    %ebp
  800c4c:	c3                   	ret    

00800c4d <vprintfmt>:
// Main function to format and print a string.
void printfmt(void (*putch)(int, void*), void *putdat, const char *fmt, ...);

void
vprintfmt(void (*putch)(int, void*), void *putdat, const char *fmt, va_list ap)
{
  800c4d:	55                   	push   %ebp
  800c4e:	89 e5                	mov    %esp,%ebp
  800c50:	57                   	push   %edi
  800c51:	56                   	push   %esi
  800c52:	53                   	push   %ebx
  800c53:	83 ec 5c             	sub    $0x5c,%esp
  800c56:	8b 7d 08             	mov    0x8(%ebp),%edi
  800c59:	8b 75 0c             	mov    0xc(%ebp),%esi
  800c5c:	8b 5d 10             	mov    0x10(%ebp),%ebx
		case '#':
			altflag = 1;
			goto reswitch;

		process_precision:
			if (width < 0)
  800c5f:	c7 45 c8 ff ff ff ff 	movl   $0xffffffff,-0x38(%ebp)
  800c66:	eb 11                	jmp    800c79 <vprintfmt+0x2c>
	int base, lflag, width, precision, altflag;
	char padc;

	while (1) {
		while ((ch = *(unsigned char *) fmt++) != '%') {
			if (ch == '\0')
  800c68:	85 c0                	test   %eax,%eax
  800c6a:	0f 84 ec 03 00 00    	je     80105c <vprintfmt+0x40f>
				return;
			putch(ch, putdat);
  800c70:	89 74 24 04          	mov    %esi,0x4(%esp)
  800c74:	89 04 24             	mov    %eax,(%esp)
  800c77:	ff d7                	call   *%edi
	unsigned long long num;
	int base, lflag, width, precision, altflag;
	char padc;

	while (1) {
		while ((ch = *(unsigned char *) fmt++) != '%') {
  800c79:	0f b6 03             	movzbl (%ebx),%eax
  800c7c:	83 c3 01             	add    $0x1,%ebx
  800c7f:	83 f8 25             	cmp    $0x25,%eax
  800c82:	75 e4                	jne    800c68 <vprintfmt+0x1b>
  800c84:	c6 45 d4 20          	movb   $0x20,-0x2c(%ebp)
  800c88:	c7 45 d8 00 00 00 00 	movl   $0x0,-0x28(%ebp)
  800c8f:	c7 45 d0 ff ff ff ff 	movl   $0xffffffff,-0x30(%ebp)
  800c96:	c7 45 e4 ff ff ff ff 	movl   $0xffffffff,-0x1c(%ebp)
  800c9d:	b9 00 00 00 00       	mov    $0x0,%ecx
  800ca2:	eb 06                	jmp    800caa <vprintfmt+0x5d>
  800ca4:	c6 45 d4 2d          	movb   $0x2d,-0x2c(%ebp)
  800ca8:	89 c3                	mov    %eax,%ebx
		width = -1;
		precision = -1;
		lflag = 0;
		altflag = 0;
	reswitch:
		switch (ch = *(unsigned char *) fmt++) {
  800caa:	0f b6 13             	movzbl (%ebx),%edx
  800cad:	0f b6 c2             	movzbl %dl,%eax
  800cb0:	89 45 e0             	mov    %eax,-0x20(%ebp)
  800cb3:	8d 43 01             	lea    0x1(%ebx),%eax
  800cb6:	83 ea 23             	sub    $0x23,%edx
  800cb9:	80 fa 55             	cmp    $0x55,%dl
  800cbc:	0f 87 7d 03 00 00    	ja     80103f <vprintfmt+0x3f2>
  800cc2:	0f b6 d2             	movzbl %dl,%edx
  800cc5:	ff 24 95 60 29 81 00 	jmp    *0x812960(,%edx,4)
  800ccc:	c6 45 d4 30          	movb   $0x30,-0x2c(%ebp)
  800cd0:	eb d6                	jmp    800ca8 <vprintfmt+0x5b>
		case '6':
		case '7':
		case '8':
		case '9':
			for (precision = 0; ; ++fmt) {
				precision = precision * 10 + ch - '0';
  800cd2:	8b 55 e0             	mov    -0x20(%ebp),%edx
  800cd5:	83 ea 30             	sub    $0x30,%edx
  800cd8:	89 55 d0             	mov    %edx,-0x30(%ebp)
				ch = *fmt;
  800cdb:	0f be 10             	movsbl (%eax),%edx
				if (ch < '0' || ch > '9')
  800cde:	8d 5a d0             	lea    -0x30(%edx),%ebx
  800ce1:	83 fb 09             	cmp    $0x9,%ebx
  800ce4:	77 4c                	ja     800d32 <vprintfmt+0xe5>
  800ce6:	89 4d e0             	mov    %ecx,-0x20(%ebp)
  800ce9:	8b 4d d0             	mov    -0x30(%ebp),%ecx
		case '5':
		case '6':
		case '7':
		case '8':
		case '9':
			for (precision = 0; ; ++fmt) {
  800cec:	83 c0 01             	add    $0x1,%eax
				precision = precision * 10 + ch - '0';
  800cef:	8d 0c 89             	lea    (%ecx,%ecx,4),%ecx
  800cf2:	8d 4c 4a d0          	lea    -0x30(%edx,%ecx,2),%ecx
				ch = *fmt;
  800cf6:	0f be 10             	movsbl (%eax),%edx
				if (ch < '0' || ch > '9')
  800cf9:	8d 5a d0             	lea    -0x30(%edx),%ebx
  800cfc:	83 fb 09             	cmp    $0x9,%ebx
  800cff:	76 eb                	jbe    800cec <vprintfmt+0x9f>
  800d01:	89 4d d0             	mov    %ecx,-0x30(%ebp)
  800d04:	8b 4d e0             	mov    -0x20(%ebp),%ecx
  800d07:	eb 29                	jmp    800d32 <vprintfmt+0xe5>
					break;
			}
			goto process_precision;

		case '*':
			precision = va_arg(ap, int);
  800d09:	8b 55 14             	mov    0x14(%ebp),%edx
  800d0c:	8d 5a 04             	lea    0x4(%edx),%ebx
  800d0f:	89 5d 14             	mov    %ebx,0x14(%ebp)
  800d12:	8b 12                	mov    (%edx),%edx
  800d14:	89 55 d0             	mov    %edx,-0x30(%ebp)
			goto process_precision;
  800d17:	eb 19                	jmp    800d32 <vprintfmt+0xe5>

		case '.':
			if (width < 0)
  800d19:	8b 55 e4             	mov    -0x1c(%ebp),%edx
  800d1c:	c1 fa 1f             	sar    $0x1f,%edx
  800d1f:	f7 d2                	not    %edx
  800d21:	21 55 e4             	and    %edx,-0x1c(%ebp)
  800d24:	eb 82                	jmp    800ca8 <vprintfmt+0x5b>
  800d26:	c7 45 d8 01 00 00 00 	movl   $0x1,-0x28(%ebp)
				width = 0;
			goto reswitch;

		case '#':
			altflag = 1;
			goto reswitch;
  800d2d:	e9 76 ff ff ff       	jmp    800ca8 <vprintfmt+0x5b>

		process_precision:
			if (width < 0)
  800d32:	83 7d e4 00          	cmpl   $0x0,-0x1c(%ebp)
  800d36:	0f 89 6c ff ff ff    	jns    800ca8 <vprintfmt+0x5b>
  800d3c:	8b 55 d0             	mov    -0x30(%ebp),%edx
  800d3f:	89 55 e4             	mov    %edx,-0x1c(%ebp)
  800d42:	8b 55 c8             	mov    -0x38(%ebp),%edx
  800d45:	89 55 d0             	mov    %edx,-0x30(%ebp)
  800d48:	e9 5b ff ff ff       	jmp    800ca8 <vprintfmt+0x5b>
				width = precision, precision = -1;
			goto reswitch;

		// long flag (doubled for long long)
		case 'l':
			lflag++;
  800d4d:	83 c1 01             	add    $0x1,%ecx
			goto reswitch;
  800d50:	e9 53 ff ff ff       	jmp    800ca8 <vprintfmt+0x5b>
  800d55:	89 45 cc             	mov    %eax,-0x34(%ebp)

		// character
		case 'c':
			putch(va_arg(ap, int), putdat);
  800d58:	8b 45 14             	mov    0x14(%ebp),%eax
  800d5b:	8d 50 04             	lea    0x4(%eax),%edx
  800d5e:	89 55 14             	mov    %edx,0x14(%ebp)
  800d61:	89 74 24 04          	mov    %esi,0x4(%esp)
  800d65:	8b 00                	mov    (%eax),%eax
  800d67:	89 04 24             	mov    %eax,(%esp)
  800d6a:	ff d7                	call   *%edi
  800d6c:	8b 5d cc             	mov    -0x34(%ebp),%ebx
			break;
  800d6f:	e9 05 ff ff ff       	jmp    800c79 <vprintfmt+0x2c>
  800d74:	89 45 cc             	mov    %eax,-0x34(%ebp)

		// error message
		case 'e':
			err = va_arg(ap, int);
  800d77:	8b 45 14             	mov    0x14(%ebp),%eax
  800d7a:	8d 50 04             	lea    0x4(%eax),%edx
  800d7d:	89 55 14             	mov    %edx,0x14(%ebp)
  800d80:	8b 00                	mov    (%eax),%eax
  800d82:	89 c2                	mov    %eax,%edx
  800d84:	c1 fa 1f             	sar    $0x1f,%edx
  800d87:	31 d0                	xor    %edx,%eax
  800d89:	29 d0                	sub    %edx,%eax
			if (err < 0)
				err = -err;
			if (err > MAXERROR || (p = error_string[err]) == NULL)
  800d8b:	83 f8 0f             	cmp    $0xf,%eax
  800d8e:	7f 0b                	jg     800d9b <vprintfmt+0x14e>
  800d90:	8b 14 85 c0 2a 81 00 	mov    0x812ac0(,%eax,4),%edx
  800d97:	85 d2                	test   %edx,%edx
  800d99:	75 20                	jne    800dbb <vprintfmt+0x16e>
				printfmt(putch, putdat, "error %d", err);
  800d9b:	89 44 24 0c          	mov    %eax,0xc(%esp)
  800d9f:	c7 44 24 08 35 28 81 	movl   $0x812835,0x8(%esp)
  800da6:	00 
  800da7:	89 74 24 04          	mov    %esi,0x4(%esp)
  800dab:	89 3c 24             	mov    %edi,(%esp)
  800dae:	e8 31 03 00 00       	call   8010e4 <printfmt>
  800db3:	8b 5d cc             	mov    -0x34(%ebp),%ebx
		// error message
		case 'e':
			err = va_arg(ap, int);
			if (err < 0)
				err = -err;
			if (err > MAXERROR || (p = error_string[err]) == NULL)
  800db6:	e9 be fe ff ff       	jmp    800c79 <vprintfmt+0x2c>
				printfmt(putch, putdat, "error %d", err);
			else
				printfmt(putch, putdat, "%s", p);
  800dbb:	89 54 24 0c          	mov    %edx,0xc(%esp)
  800dbf:	c7 44 24 08 22 2e 81 	movl   $0x812e22,0x8(%esp)
  800dc6:	00 
  800dc7:	89 74 24 04          	mov    %esi,0x4(%esp)
  800dcb:	89 3c 24             	mov    %edi,(%esp)
  800dce:	e8 11 03 00 00       	call   8010e4 <printfmt>
  800dd3:	8b 5d cc             	mov    -0x34(%ebp),%ebx
  800dd6:	e9 9e fe ff ff       	jmp    800c79 <vprintfmt+0x2c>
  800ddb:	89 45 cc             	mov    %eax,-0x34(%ebp)
  800dde:	89 c3                	mov    %eax,%ebx
  800de0:	8b 4d d0             	mov    -0x30(%ebp),%ecx
  800de3:	8b 45 e4             	mov    -0x1c(%ebp),%eax
  800de6:	89 45 c4             	mov    %eax,-0x3c(%ebp)
			break;

		// string
		case 's':
			if ((p = va_arg(ap, char *)) == NULL)
  800de9:	8b 45 14             	mov    0x14(%ebp),%eax
  800dec:	8d 50 04             	lea    0x4(%eax),%edx
  800def:	89 55 14             	mov    %edx,0x14(%ebp)
  800df2:	8b 00                	mov    (%eax),%eax
  800df4:	89 45 e0             	mov    %eax,-0x20(%ebp)
  800df7:	85 c0                	test   %eax,%eax
  800df9:	75 07                	jne    800e02 <vprintfmt+0x1b5>
  800dfb:	c7 45 e0 3e 28 81 00 	movl   $0x81283e,-0x20(%ebp)
				p = "(null)";
			if (width > 0 && padc != '-')
  800e02:	83 7d c4 00          	cmpl   $0x0,-0x3c(%ebp)
  800e06:	7e 06                	jle    800e0e <vprintfmt+0x1c1>
  800e08:	80 7d d4 2d          	cmpb   $0x2d,-0x2c(%ebp)
  800e0c:	75 13                	jne    800e21 <vprintfmt+0x1d4>
				for (width -= strnlen(p, precision); width > 0; width--)
					putch(padc, putdat);
			for (; (ch = *p++) != '\0' && (precision < 0 || --precision >= 0); width--)
  800e0e:	8b 55 e0             	mov    -0x20(%ebp),%edx
  800e11:	0f be 02             	movsbl (%edx),%eax
  800e14:	85 c0                	test   %eax,%eax
  800e16:	0f 85 99 00 00 00    	jne    800eb5 <vprintfmt+0x268>
  800e1c:	e9 86 00 00 00       	jmp    800ea7 <vprintfmt+0x25a>
		// string
		case 's':
			if ((p = va_arg(ap, char *)) == NULL)
				p = "(null)";
			if (width > 0 && padc != '-')
				for (width -= strnlen(p, precision); width > 0; width--)
  800e21:	89 4c 24 04          	mov    %ecx,0x4(%esp)
  800e25:	8b 4d e0             	mov    -0x20(%ebp),%ecx
  800e28:	89 0c 24             	mov    %ecx,(%esp)
  800e2b:	e8 fb 02 00 00       	call   80112b <strnlen>
  800e30:	8b 55 c4             	mov    -0x3c(%ebp),%edx
  800e33:	29 c2                	sub    %eax,%edx
  800e35:	89 55 e4             	mov    %edx,-0x1c(%ebp)
  800e38:	85 d2                	test   %edx,%edx
  800e3a:	7e d2                	jle    800e0e <vprintfmt+0x1c1>
					putch(padc, putdat);
  800e3c:	0f be 4d d4          	movsbl -0x2c(%ebp),%ecx
  800e40:	89 4d d4             	mov    %ecx,-0x2c(%ebp)
  800e43:	89 5d c4             	mov    %ebx,-0x3c(%ebp)
  800e46:	89 d3                	mov    %edx,%ebx
  800e48:	89 74 24 04          	mov    %esi,0x4(%esp)
  800e4c:	8b 45 d4             	mov    -0x2c(%ebp),%eax
  800e4f:	89 04 24             	mov    %eax,(%esp)
  800e52:	ff d7                	call   *%edi
		// string
		case 's':
			if ((p = va_arg(ap, char *)) == NULL)
				p = "(null)";
			if (width > 0 && padc != '-')
				for (width -= strnlen(p, precision); width > 0; width--)
  800e54:	83 eb 01             	sub    $0x1,%ebx
  800e57:	85 db                	test   %ebx,%ebx
  800e59:	7f ed                	jg     800e48 <vprintfmt+0x1fb>
  800e5b:	8b 5d c4             	mov    -0x3c(%ebp),%ebx
  800e5e:	c7 45 e4 00 00 00 00 	movl   $0x0,-0x1c(%ebp)
  800e65:	eb a7                	jmp    800e0e <vprintfmt+0x1c1>
					putch(padc, putdat);
			for (; (ch = *p++) != '\0' && (precision < 0 || --precision >= 0); width--)
				if (altflag && (ch < ' ' || ch > '~'))
  800e67:	83 7d d8 00          	cmpl   $0x0,-0x28(%ebp)
  800e6b:	74 18                	je     800e85 <vprintfmt+0x238>
  800e6d:	8d 50 e0             	lea    -0x20(%eax),%edx
  800e70:	83 fa 5e             	cmp    $0x5e,%edx
  800e73:	76 10                	jbe    800e85 <vprintfmt+0x238>
					putch('?', putdat);
  800e75:	89 7c 24 04          	mov    %edi,0x4(%esp)
  800e79:	c7 04 24 3f 00 00 00 	movl   $0x3f,(%esp)
  800e80:	ff 55 e0             	call   *-0x20(%ebp)
				p = "(null)";
			if (width > 0 && padc != '-')
				for (width -= strnlen(p, precision); width > 0; width--)
					putch(padc, putdat);
			for (; (ch = *p++) != '\0' && (precision < 0 || --precision >= 0); width--)
				if (altflag && (ch < ' ' || ch > '~'))
  800e83:	eb 0a                	jmp    800e8f <vprintfmt+0x242>
					putch('?', putdat);
				else
					putch(ch, putdat);
  800e85:	89 7c 24 04          	mov    %edi,0x4(%esp)
  800e89:	89 04 24             	mov    %eax,(%esp)
  800e8c:	ff 55 e0             	call   *-0x20(%ebp)
			if ((p = va_arg(ap, char *)) == NULL)
				p = "(null)";
			if (width > 0 && padc != '-')
				for (width -= strnlen(p, precision); width > 0; width--)
					putch(padc, putdat);
			for (; (ch = *p++) != '\0' && (precision < 0 || --precision >= 0); width--)
  800e8f:	83 6d e4 01          	subl   $0x1,-0x1c(%ebp)
  800e93:	0f be 03             	movsbl (%ebx),%eax
  800e96:	85 c0                	test   %eax,%eax
  800e98:	74 05                	je     800e9f <vprintfmt+0x252>
  800e9a:	83 c3 01             	add    $0x1,%ebx
  800e9d:	eb 29                	jmp    800ec8 <vprintfmt+0x27b>
  800e9f:	89 fe                	mov    %edi,%esi
  800ea1:	8b 7d e0             	mov    -0x20(%ebp),%edi
  800ea4:	8b 5d d0             	mov    -0x30(%ebp),%ebx
				if (altflag && (ch < ' ' || ch > '~'))
					putch('?', putdat);
				else
					putch(ch, putdat);
			for (; width > 0; width--)
  800ea7:	83 7d e4 00          	cmpl   $0x0,-0x1c(%ebp)
  800eab:	7f 2e                	jg     800edb <vprintfmt+0x28e>
  800ead:	8b 5d cc             	mov    -0x34(%ebp),%ebx
  800eb0:	e9 c4 fd ff ff       	jmp    800c79 <vprintfmt+0x2c>
			if ((p = va_arg(ap, char *)) == NULL)
				p = "(null)";
			if (width > 0 && padc != '-')
				for (width -= strnlen(p, precision); width > 0; width--)
					putch(padc, putdat);
			for (; (ch = *p++) != '\0' && (precision < 0 || --precision >= 0); width--)
  800eb5:	8b 55 e0             	mov    -0x20(%ebp),%edx
  800eb8:	83 c2 01             	add    $0x1,%edx
  800ebb:	89 7d e0             	mov    %edi,-0x20(%ebp)
  800ebe:	89 f7                	mov    %esi,%edi
  800ec0:	8b 75 d0             	mov    -0x30(%ebp),%esi
  800ec3:	89 5d d0             	mov    %ebx,-0x30(%ebp)
  800ec6:	89 d3                	mov    %edx,%ebx
  800ec8:	85 f6                	test   %esi,%esi
  800eca:	78 9b                	js     800e67 <vprintfmt+0x21a>
  800ecc:	83 ee 01             	sub    $0x1,%esi
  800ecf:	79 96                	jns    800e67 <vprintfmt+0x21a>
  800ed1:	89 fe                	mov    %edi,%esi
  800ed3:	8b 7d e0             	mov    -0x20(%ebp),%edi
  800ed6:	8b 5d d0             	mov    -0x30(%ebp),%ebx
  800ed9:	eb cc                	jmp    800ea7 <vprintfmt+0x25a>
  800edb:	89 5d d8             	mov    %ebx,-0x28(%ebp)
  800ede:	8b 5d e4             	mov    -0x1c(%ebp),%ebx
				if (altflag && (ch < ' ' || ch > '~'))
					putch('?', putdat);
				else
					putch(ch, putdat);
			for (; width > 0; width--)
				putch(' ', putdat);
  800ee1:	89 74 24 04          	mov    %esi,0x4(%esp)
  800ee5:	c7 04 24 20 00 00 00 	movl   $0x20,(%esp)
  800eec:	ff d7                	call   *%edi
			for (; (ch = *p++) != '\0' && (precision < 0 || --precision >= 0); width--)
				if (altflag && (ch < ' ' || ch > '~'))
					putch('?', putdat);
				else
					putch(ch, putdat);
			for (; width > 0; width--)
  800eee:	83 eb 01             	sub    $0x1,%ebx
  800ef1:	85 db                	test   %ebx,%ebx
  800ef3:	7f ec                	jg     800ee1 <vprintfmt+0x294>
  800ef5:	8b 5d d8             	mov    -0x28(%ebp),%ebx
  800ef8:	e9 7c fd ff ff       	jmp    800c79 <vprintfmt+0x2c>
  800efd:	89 45 cc             	mov    %eax,-0x34(%ebp)
// Same as getuint but signed - can't use getuint
// because of sign extension
static long long
getint(va_list *ap, int lflag)
{
	if (lflag >= 2)
  800f00:	83 f9 01             	cmp    $0x1,%ecx
  800f03:	7e 16                	jle    800f1b <vprintfmt+0x2ce>
		return va_arg(*ap, long long);
  800f05:	8b 45 14             	mov    0x14(%ebp),%eax
  800f08:	8d 50 08             	lea    0x8(%eax),%edx
  800f0b:	89 55 14             	mov    %edx,0x14(%ebp)
  800f0e:	8b 10                	mov    (%eax),%edx
  800f10:	8b 48 04             	mov    0x4(%eax),%ecx
  800f13:	89 55 d8             	mov    %edx,-0x28(%ebp)
  800f16:	89 4d dc             	mov    %ecx,-0x24(%ebp)
  800f19:	eb 32                	jmp    800f4d <vprintfmt+0x300>
	else if (lflag)
  800f1b:	85 c9                	test   %ecx,%ecx
  800f1d:	74 18                	je     800f37 <vprintfmt+0x2ea>
		return va_arg(*ap, long);
  800f1f:	8b 45 14             	mov    0x14(%ebp),%eax
  800f22:	8d 50 04             	lea    0x4(%eax),%edx
  800f25:	89 55 14             	mov    %edx,0x14(%ebp)
  800f28:	8b 00                	mov    (%eax),%eax
  800f2a:	89 45 d8             	mov    %eax,-0x28(%ebp)
  800f2d:	89 c1                	mov    %eax,%ecx
  800f2f:	c1 f9 1f             	sar    $0x1f,%ecx
  800f32:	89 4d dc             	mov    %ecx,-0x24(%ebp)
  800f35:	eb 16                	jmp    800f4d <vprintfmt+0x300>
	else
		return va_arg(*ap, int);
  800f37:	8b 45 14             	mov    0x14(%ebp),%eax
  800f3a:	8d 50 04             	lea    0x4(%eax),%edx
  800f3d:	89 55 14             	mov    %edx,0x14(%ebp)
  800f40:	8b 00                	mov    (%eax),%eax
  800f42:	89 45 d8             	mov    %eax,-0x28(%ebp)
  800f45:	89 c2                	mov    %eax,%edx
  800f47:	c1 fa 1f             	sar    $0x1f,%edx
  800f4a:	89 55 dc             	mov    %edx,-0x24(%ebp)
				putch(' ', putdat);
			break;

		// (signed) decimal
		case 'd':
			num = getint(&ap, lflag);
  800f4d:	8b 4d d8             	mov    -0x28(%ebp),%ecx
  800f50:	8b 5d dc             	mov    -0x24(%ebp),%ebx
  800f53:	b8 0a 00 00 00       	mov    $0xa,%eax
			if ((long long) num < 0) {
  800f58:	83 7d dc 00          	cmpl   $0x0,-0x24(%ebp)
  800f5c:	0f 89 9b 00 00 00    	jns    800ffd <vprintfmt+0x3b0>
				putch('-', putdat);
  800f62:	89 74 24 04          	mov    %esi,0x4(%esp)
  800f66:	c7 04 24 2d 00 00 00 	movl   $0x2d,(%esp)
  800f6d:	ff d7                	call   *%edi
				num = -(long long) num;
  800f6f:	8b 4d d8             	mov    -0x28(%ebp),%ecx
  800f72:	8b 5d dc             	mov    -0x24(%ebp),%ebx
  800f75:	f7 d9                	neg    %ecx
  800f77:	83 d3 00             	adc    $0x0,%ebx
  800f7a:	f7 db                	neg    %ebx
  800f7c:	b8 0a 00 00 00       	mov    $0xa,%eax
  800f81:	eb 7a                	jmp    800ffd <vprintfmt+0x3b0>
  800f83:	89 45 cc             	mov    %eax,-0x34(%ebp)
			base = 10;
			goto number;

		// unsigned decimal
		case 'u':
			num = getuint(&ap, lflag);
  800f86:	89 ca                	mov    %ecx,%edx
  800f88:	8d 45 14             	lea    0x14(%ebp),%eax
  800f8b:	e8 66 fc ff ff       	call   800bf6 <getuint>
  800f90:	89 c1                	mov    %eax,%ecx
  800f92:	89 d3                	mov    %edx,%ebx
  800f94:	b8 0a 00 00 00       	mov    $0xa,%eax
			base = 10;
			goto number;
  800f99:	eb 62                	jmp    800ffd <vprintfmt+0x3b0>
  800f9b:	89 45 cc             	mov    %eax,-0x34(%ebp)
		case 'o':
			// Replace this with your code.
			// putch('X', putdat);
			// putch('X', putdat);
			// putch('X', putdat);
			num = getuint(&ap, lflag);
  800f9e:	89 ca                	mov    %ecx,%edx
  800fa0:	8d 45 14             	lea    0x14(%ebp),%eax
  800fa3:	e8 4e fc ff ff       	call   800bf6 <getuint>
  800fa8:	89 c1                	mov    %eax,%ecx
  800faa:	89 d3                	mov    %edx,%ebx
  800fac:	b8 08 00 00 00       	mov    $0x8,%eax
			base = 8;
			goto number;
  800fb1:	eb 4a                	jmp    800ffd <vprintfmt+0x3b0>
  800fb3:	89 45 cc             	mov    %eax,-0x34(%ebp)
			break;

		// pointer
		case 'p':
			putch('0', putdat);
  800fb6:	89 74 24 04          	mov    %esi,0x4(%esp)
  800fba:	c7 04 24 30 00 00 00 	movl   $0x30,(%esp)
  800fc1:	ff d7                	call   *%edi
			putch('x', putdat);
  800fc3:	89 74 24 04          	mov    %esi,0x4(%esp)
  800fc7:	c7 04 24 78 00 00 00 	movl   $0x78,(%esp)
  800fce:	ff d7                	call   *%edi
			num = (unsigned long long)
  800fd0:	8b 45 14             	mov    0x14(%ebp),%eax
  800fd3:	8d 50 04             	lea    0x4(%eax),%edx
  800fd6:	89 55 14             	mov    %edx,0x14(%ebp)
  800fd9:	8b 08                	mov    (%eax),%ecx
  800fdb:	bb 00 00 00 00       	mov    $0x0,%ebx
  800fe0:	b8 10 00 00 00       	mov    $0x10,%eax
				(uintptr_t) va_arg(ap, void *);
			base = 16;
			goto number;
  800fe5:	eb 16                	jmp    800ffd <vprintfmt+0x3b0>
  800fe7:	89 45 cc             	mov    %eax,-0x34(%ebp)

		// (unsigned) hexadecimal
		case 'x':
			num = getuint(&ap, lflag);
  800fea:	89 ca                	mov    %ecx,%edx
  800fec:	8d 45 14             	lea    0x14(%ebp),%eax
  800fef:	e8 02 fc ff ff       	call   800bf6 <getuint>
  800ff4:	89 c1                	mov    %eax,%ecx
  800ff6:	89 d3                	mov    %edx,%ebx
  800ff8:	b8 10 00 00 00       	mov    $0x10,%eax
			base = 16;
		number:
			printnum(putch, putdat, num, base, width, padc);
  800ffd:	0f be 55 d4          	movsbl -0x2c(%ebp),%edx
  801001:	89 54 24 10          	mov    %edx,0x10(%esp)
  801005:	8b 55 e4             	mov    -0x1c(%ebp),%edx
  801008:	89 54 24 0c          	mov    %edx,0xc(%esp)
  80100c:	89 44 24 08          	mov    %eax,0x8(%esp)
  801010:	89 0c 24             	mov    %ecx,(%esp)
  801013:	89 5c 24 04          	mov    %ebx,0x4(%esp)
  801017:	89 f2                	mov    %esi,%edx
  801019:	89 f8                	mov    %edi,%eax
  80101b:	e8 e0 fa ff ff       	call   800b00 <printnum>
  801020:	8b 5d cc             	mov    -0x34(%ebp),%ebx
			break;
  801023:	e9 51 fc ff ff       	jmp    800c79 <vprintfmt+0x2c>
  801028:	89 45 cc             	mov    %eax,-0x34(%ebp)
  80102b:	8b 55 e0             	mov    -0x20(%ebp),%edx

		// escaped '%' character
		case '%':
			putch(ch, putdat);
  80102e:	89 74 24 04          	mov    %esi,0x4(%esp)
  801032:	89 14 24             	mov    %edx,(%esp)
  801035:	ff d7                	call   *%edi
  801037:	8b 5d cc             	mov    -0x34(%ebp),%ebx
			break;
  80103a:	e9 3a fc ff ff       	jmp    800c79 <vprintfmt+0x2c>
			
		// unrecognized escape sequence - just print it literally
		default:
			putch('%', putdat);
  80103f:	89 74 24 04          	mov    %esi,0x4(%esp)
  801043:	c7 04 24 25 00 00 00 	movl   $0x25,(%esp)
  80104a:	ff d7                	call   *%edi
			for (fmt--; fmt[-1] != '%'; fmt--)
  80104c:	8d 43 ff             	lea    -0x1(%ebx),%eax
  80104f:	80 38 25             	cmpb   $0x25,(%eax)
  801052:	0f 84 21 fc ff ff    	je     800c79 <vprintfmt+0x2c>
  801058:	89 c3                	mov    %eax,%ebx
  80105a:	eb f0                	jmp    80104c <vprintfmt+0x3ff>
				/* do nothing */;
			break;
		}
	}
}
  80105c:	83 c4 5c             	add    $0x5c,%esp
  80105f:	5b                   	pop    %ebx
  801060:	5e                   	pop    %esi
  801061:	5f                   	pop    %edi
  801062:	5d                   	pop    %ebp
  801063:	c3                   	ret    

00801064 <vsnprintf>:
		*b->buf++ = ch;
}

int
vsnprintf(char *buf, int n, const char *fmt, va_list ap)
{
  801064:	55                   	push   %ebp
  801065:	89 e5                	mov    %esp,%ebp
  801067:	83 ec 28             	sub    $0x28,%esp
  80106a:	8b 45 08             	mov    0x8(%ebp),%eax
  80106d:	8b 55 0c             	mov    0xc(%ebp),%edx
	struct sprintbuf b = {buf, buf+n-1, 0};

	if (buf == NULL || n < 1)
  801070:	85 c0                	test   %eax,%eax
  801072:	74 04                	je     801078 <vsnprintf+0x14>
  801074:	85 d2                	test   %edx,%edx
  801076:	7f 07                	jg     80107f <vsnprintf+0x1b>
  801078:	b8 fd ff ff ff       	mov    $0xfffffffd,%eax
  80107d:	eb 3b                	jmp    8010ba <vsnprintf+0x56>
}

int
vsnprintf(char *buf, int n, const char *fmt, va_list ap)
{
	struct sprintbuf b = {buf, buf+n-1, 0};
  80107f:	89 45 ec             	mov    %eax,-0x14(%ebp)
  801082:	8d 44 10 ff          	lea    -0x1(%eax,%edx,1),%eax
  801086:	89 45 f0             	mov    %eax,-0x10(%ebp)
  801089:	c7 45 f4 00 00 00 00 	movl   $0x0,-0xc(%ebp)

	if (buf == NULL || n < 1)
		return -E_INVAL;

	// print the string to the buffer
	vprintfmt((void*)sprintputch, &b, fmt, ap);
  801090:	8b 45 14             	mov    0x14(%ebp),%eax
  801093:	89 44 24 0c          	mov    %eax,0xc(%esp)
  801097:	8b 45 10             	mov    0x10(%ebp),%eax
  80109a:	89 44 24 08          	mov    %eax,0x8(%esp)
  80109e:	8d 45 ec             	lea    -0x14(%ebp),%eax
  8010a1:	89 44 24 04          	mov    %eax,0x4(%esp)
  8010a5:	c7 04 24 30 0c 80 00 	movl   $0x800c30,(%esp)
  8010ac:	e8 9c fb ff ff       	call   800c4d <vprintfmt>

	// null terminate the buffer
	*b.buf = '\0';
  8010b1:	8b 45 ec             	mov    -0x14(%ebp),%eax
  8010b4:	c6 00 00             	movb   $0x0,(%eax)

	return b.cnt;
  8010b7:	8b 45 f4             	mov    -0xc(%ebp),%eax
}
  8010ba:	c9                   	leave  
  8010bb:	c3                   	ret    

008010bc <snprintf>:

int
snprintf(char *buf, int n, const char *fmt, ...)
{
  8010bc:	55                   	push   %ebp
  8010bd:	89 e5                	mov    %esp,%ebp
  8010bf:	83 ec 18             	sub    $0x18,%esp

	return b.cnt;
}

int
snprintf(char *buf, int n, const char *fmt, ...)
  8010c2:	8d 45 14             	lea    0x14(%ebp),%eax
{
	va_list ap;
	int rc;

	va_start(ap, fmt);
	rc = vsnprintf(buf, n, fmt, ap);
  8010c5:	89 44 24 0c          	mov    %eax,0xc(%esp)
  8010c9:	8b 45 10             	mov    0x10(%ebp),%eax
  8010cc:	89 44 24 08          	mov    %eax,0x8(%esp)
  8010d0:	8b 45 0c             	mov    0xc(%ebp),%eax
  8010d3:	89 44 24 04          	mov    %eax,0x4(%esp)
  8010d7:	8b 45 08             	mov    0x8(%ebp),%eax
  8010da:	89 04 24             	mov    %eax,(%esp)
  8010dd:	e8 82 ff ff ff       	call   801064 <vsnprintf>
	va_end(ap);

	return rc;
}
  8010e2:	c9                   	leave  
  8010e3:	c3                   	ret    

008010e4 <printfmt>:
	}
}

void
printfmt(void (*putch)(int, void*), void *putdat, const char *fmt, ...)
{
  8010e4:	55                   	push   %ebp
  8010e5:	89 e5                	mov    %esp,%ebp
  8010e7:	83 ec 18             	sub    $0x18,%esp
		}
	}
}

void
printfmt(void (*putch)(int, void*), void *putdat, const char *fmt, ...)
  8010ea:	8d 45 14             	lea    0x14(%ebp),%eax
{
	va_list ap;

	va_start(ap, fmt);
	vprintfmt(putch, putdat, fmt, ap);
  8010ed:	89 44 24 0c          	mov    %eax,0xc(%esp)
  8010f1:	8b 45 10             	mov    0x10(%ebp),%eax
  8010f4:	89 44 24 08          	mov    %eax,0x8(%esp)
  8010f8:	8b 45 0c             	mov    0xc(%ebp),%eax
  8010fb:	89 44 24 04          	mov    %eax,0x4(%esp)
  8010ff:	8b 45 08             	mov    0x8(%ebp),%eax
  801102:	89 04 24             	mov    %eax,(%esp)
  801105:	e8 43 fb ff ff       	call   800c4d <vprintfmt>
	va_end(ap);
}
  80110a:	c9                   	leave  
  80110b:	c3                   	ret    
  80110c:	00 00                	add    %al,(%eax)
	...

00801110 <strlen>:
// Primespipe runs 3x faster this way.
#define ASM 1

int
strlen(const char *s)
{
  801110:	55                   	push   %ebp
  801111:	89 e5                	mov    %esp,%ebp
  801113:	8b 55 08             	mov    0x8(%ebp),%edx
	int n;

	for (n = 0; *s != '\0'; s++)
  801116:	b8 00 00 00 00       	mov    $0x0,%eax
  80111b:	80 3a 00             	cmpb   $0x0,(%edx)
  80111e:	74 09                	je     801129 <strlen+0x19>
		n++;
  801120:	83 c0 01             	add    $0x1,%eax
int
strlen(const char *s)
{
	int n;

	for (n = 0; *s != '\0'; s++)
  801123:	80 3c 02 00          	cmpb   $0x0,(%edx,%eax,1)
  801127:	75 f7                	jne    801120 <strlen+0x10>
		n++;
	return n;
}
  801129:	5d                   	pop    %ebp
  80112a:	c3                   	ret    

0080112b <strnlen>:

int
strnlen(const char *s, size_t size)
{
  80112b:	55                   	push   %ebp
  80112c:	89 e5                	mov    %esp,%ebp
  80112e:	53                   	push   %ebx
  80112f:	8b 5d 08             	mov    0x8(%ebp),%ebx
  801132:	8b 4d 0c             	mov    0xc(%ebp),%ecx
	int n;

	for (n = 0; size > 0 && *s != '\0'; s++, size--)
  801135:	85 c9                	test   %ecx,%ecx
  801137:	74 19                	je     801152 <strnlen+0x27>
  801139:	80 3b 00             	cmpb   $0x0,(%ebx)
  80113c:	74 14                	je     801152 <strnlen+0x27>
  80113e:	b8 00 00 00 00       	mov    $0x0,%eax
		n++;
  801143:	83 c0 01             	add    $0x1,%eax
int
strnlen(const char *s, size_t size)
{
	int n;

	for (n = 0; size > 0 && *s != '\0'; s++, size--)
  801146:	39 c8                	cmp    %ecx,%eax
  801148:	74 0d                	je     801157 <strnlen+0x2c>
  80114a:	80 3c 03 00          	cmpb   $0x0,(%ebx,%eax,1)
  80114e:	75 f3                	jne    801143 <strnlen+0x18>
  801150:	eb 05                	jmp    801157 <strnlen+0x2c>
  801152:	b8 00 00 00 00       	mov    $0x0,%eax
		n++;
	return n;
}
  801157:	5b                   	pop    %ebx
  801158:	5d                   	pop    %ebp
  801159:	c3                   	ret    

0080115a <strcpy>:

char *
strcpy(char *dst, const char *src)
{
  80115a:	55                   	push   %ebp
  80115b:	89 e5                	mov    %esp,%ebp
  80115d:	53                   	push   %ebx
  80115e:	8b 45 08             	mov    0x8(%ebp),%eax
  801161:	8b 5d 0c             	mov    0xc(%ebp),%ebx
  801164:	ba 00 00 00 00       	mov    $0x0,%edx
	char *ret;

	ret = dst;
	while ((*dst++ = *src++) != '\0')
  801169:	0f b6 0c 13          	movzbl (%ebx,%edx,1),%ecx
  80116d:	88 0c 10             	mov    %cl,(%eax,%edx,1)
  801170:	83 c2 01             	add    $0x1,%edx
  801173:	84 c9                	test   %cl,%cl
  801175:	75 f2                	jne    801169 <strcpy+0xf>
		/* do nothing */;
	return ret;
}
  801177:	5b                   	pop    %ebx
  801178:	5d                   	pop    %ebp
  801179:	c3                   	ret    

0080117a <strncpy>:

char *
strncpy(char *dst, const char *src, size_t size) {
  80117a:	55                   	push   %ebp
  80117b:	89 e5                	mov    %esp,%ebp
  80117d:	56                   	push   %esi
  80117e:	53                   	push   %ebx
  80117f:	8b 45 08             	mov    0x8(%ebp),%eax
  801182:	8b 55 0c             	mov    0xc(%ebp),%edx
  801185:	8b 75 10             	mov    0x10(%ebp),%esi
	size_t i;
	char *ret;

	ret = dst;
	for (i = 0; i < size; i++) {
  801188:	85 f6                	test   %esi,%esi
  80118a:	74 18                	je     8011a4 <strncpy+0x2a>
  80118c:	b9 00 00 00 00       	mov    $0x0,%ecx
		*dst++ = *src;
  801191:	0f b6 1a             	movzbl (%edx),%ebx
  801194:	88 1c 08             	mov    %bl,(%eax,%ecx,1)
		// If strlen(src) < size, null-pad 'dst' out to 'size' chars
		if (*src != '\0')
			src++;
  801197:	80 3a 01             	cmpb   $0x1,(%edx)
  80119a:	83 da ff             	sbb    $0xffffffff,%edx
strncpy(char *dst, const char *src, size_t size) {
	size_t i;
	char *ret;

	ret = dst;
	for (i = 0; i < size; i++) {
  80119d:	83 c1 01             	add    $0x1,%ecx
  8011a0:	39 ce                	cmp    %ecx,%esi
  8011a2:	77 ed                	ja     801191 <strncpy+0x17>
		// If strlen(src) < size, null-pad 'dst' out to 'size' chars
		if (*src != '\0')
			src++;
	}
	return ret;
}
  8011a4:	5b                   	pop    %ebx
  8011a5:	5e                   	pop    %esi
  8011a6:	5d                   	pop    %ebp
  8011a7:	c3                   	ret    

008011a8 <strlcpy>:

size_t
strlcpy(char *dst, const char *src, size_t size)
{
  8011a8:	55                   	push   %ebp
  8011a9:	89 e5                	mov    %esp,%ebp
  8011ab:	56                   	push   %esi
  8011ac:	53                   	push   %ebx
  8011ad:	8b 75 08             	mov    0x8(%ebp),%esi
  8011b0:	8b 55 0c             	mov    0xc(%ebp),%edx
  8011b3:	8b 4d 10             	mov    0x10(%ebp),%ecx
	char *dst_in;

	dst_in = dst;
	if (size > 0) {
  8011b6:	89 f0                	mov    %esi,%eax
  8011b8:	85 c9                	test   %ecx,%ecx
  8011ba:	74 27                	je     8011e3 <strlcpy+0x3b>
		while (--size > 0 && *src != '\0')
  8011bc:	83 e9 01             	sub    $0x1,%ecx
  8011bf:	74 1d                	je     8011de <strlcpy+0x36>
  8011c1:	0f b6 1a             	movzbl (%edx),%ebx
  8011c4:	84 db                	test   %bl,%bl
  8011c6:	74 16                	je     8011de <strlcpy+0x36>
			*dst++ = *src++;
  8011c8:	88 18                	mov    %bl,(%eax)
  8011ca:	83 c0 01             	add    $0x1,%eax
{
	char *dst_in;

	dst_in = dst;
	if (size > 0) {
		while (--size > 0 && *src != '\0')
  8011cd:	83 e9 01             	sub    $0x1,%ecx
  8011d0:	74 0e                	je     8011e0 <strlcpy+0x38>
			*dst++ = *src++;
  8011d2:	83 c2 01             	add    $0x1,%edx
{
	char *dst_in;

	dst_in = dst;
	if (size > 0) {
		while (--size > 0 && *src != '\0')
  8011d5:	0f b6 1a             	movzbl (%edx),%ebx
  8011d8:	84 db                	test   %bl,%bl
  8011da:	75 ec                	jne    8011c8 <strlcpy+0x20>
  8011dc:	eb 02                	jmp    8011e0 <strlcpy+0x38>
  8011de:	89 f0                	mov    %esi,%eax
			*dst++ = *src++;
		*dst = '\0';
  8011e0:	c6 00 00             	movb   $0x0,(%eax)
  8011e3:	29 f0                	sub    %esi,%eax
	}
	return dst - dst_in;
}
  8011e5:	5b                   	pop    %ebx
  8011e6:	5e                   	pop    %esi
  8011e7:	5d                   	pop    %ebp
  8011e8:	c3                   	ret    

008011e9 <strcmp>:

int
strcmp(const char *p, const char *q)
{
  8011e9:	55                   	push   %ebp
  8011ea:	89 e5                	mov    %esp,%ebp
  8011ec:	8b 4d 08             	mov    0x8(%ebp),%ecx
  8011ef:	8b 55 0c             	mov    0xc(%ebp),%edx
	while (*p && *p == *q)
  8011f2:	0f b6 01             	movzbl (%ecx),%eax
  8011f5:	84 c0                	test   %al,%al
  8011f7:	74 15                	je     80120e <strcmp+0x25>
  8011f9:	3a 02                	cmp    (%edx),%al
  8011fb:	75 11                	jne    80120e <strcmp+0x25>
		p++, q++;
  8011fd:	83 c1 01             	add    $0x1,%ecx
  801200:	83 c2 01             	add    $0x1,%edx
}

int
strcmp(const char *p, const char *q)
{
	while (*p && *p == *q)
  801203:	0f b6 01             	movzbl (%ecx),%eax
  801206:	84 c0                	test   %al,%al
  801208:	74 04                	je     80120e <strcmp+0x25>
  80120a:	3a 02                	cmp    (%edx),%al
  80120c:	74 ef                	je     8011fd <strcmp+0x14>
  80120e:	0f b6 c0             	movzbl %al,%eax
  801211:	0f b6 12             	movzbl (%edx),%edx
  801214:	29 d0                	sub    %edx,%eax
		p++, q++;
	return (int) ((unsigned char) *p - (unsigned char) *q);
}
  801216:	5d                   	pop    %ebp
  801217:	c3                   	ret    

00801218 <strncmp>:

int
strncmp(const char *p, const char *q, size_t n)
{
  801218:	55                   	push   %ebp
  801219:	89 e5                	mov    %esp,%ebp
  80121b:	53                   	push   %ebx
  80121c:	8b 55 08             	mov    0x8(%ebp),%edx
  80121f:	8b 4d 0c             	mov    0xc(%ebp),%ecx
  801222:	8b 45 10             	mov    0x10(%ebp),%eax
	while (n > 0 && *p && *p == *q)
  801225:	85 c0                	test   %eax,%eax
  801227:	74 23                	je     80124c <strncmp+0x34>
  801229:	0f b6 1a             	movzbl (%edx),%ebx
  80122c:	84 db                	test   %bl,%bl
  80122e:	74 24                	je     801254 <strncmp+0x3c>
  801230:	3a 19                	cmp    (%ecx),%bl
  801232:	75 20                	jne    801254 <strncmp+0x3c>
  801234:	83 e8 01             	sub    $0x1,%eax
  801237:	74 13                	je     80124c <strncmp+0x34>
		n--, p++, q++;
  801239:	83 c2 01             	add    $0x1,%edx
  80123c:	83 c1 01             	add    $0x1,%ecx
}

int
strncmp(const char *p, const char *q, size_t n)
{
	while (n > 0 && *p && *p == *q)
  80123f:	0f b6 1a             	movzbl (%edx),%ebx
  801242:	84 db                	test   %bl,%bl
  801244:	74 0e                	je     801254 <strncmp+0x3c>
  801246:	3a 19                	cmp    (%ecx),%bl
  801248:	74 ea                	je     801234 <strncmp+0x1c>
  80124a:	eb 08                	jmp    801254 <strncmp+0x3c>
  80124c:	b8 00 00 00 00       	mov    $0x0,%eax
		n--, p++, q++;
	if (n == 0)
		return 0;
	else
		return (int) ((unsigned char) *p - (unsigned char) *q);
}
  801251:	5b                   	pop    %ebx
  801252:	5d                   	pop    %ebp
  801253:	c3                   	ret    
	while (n > 0 && *p && *p == *q)
		n--, p++, q++;
	if (n == 0)
		return 0;
	else
		return (int) ((unsigned char) *p - (unsigned char) *q);
  801254:	0f b6 02             	movzbl (%edx),%eax
  801257:	0f b6 11             	movzbl (%ecx),%edx
  80125a:	29 d0                	sub    %edx,%eax
  80125c:	eb f3                	jmp    801251 <strncmp+0x39>

0080125e <strchr>:

// Return a pointer to the first occurrence of 'c' in 's',
// or a null pointer if the string has no 'c'.
char *
strchr(const char *s, char c)
{
  80125e:	55                   	push   %ebp
  80125f:	89 e5                	mov    %esp,%ebp
  801261:	8b 45 08             	mov    0x8(%ebp),%eax
  801264:	0f b6 4d 0c          	movzbl 0xc(%ebp),%ecx
	for (; *s; s++)
  801268:	0f b6 10             	movzbl (%eax),%edx
  80126b:	84 d2                	test   %dl,%dl
  80126d:	74 15                	je     801284 <strchr+0x26>
		if (*s == c)
  80126f:	38 ca                	cmp    %cl,%dl
  801271:	75 07                	jne    80127a <strchr+0x1c>
  801273:	eb 14                	jmp    801289 <strchr+0x2b>
  801275:	38 ca                	cmp    %cl,%dl
  801277:	90                   	nop
  801278:	74 0f                	je     801289 <strchr+0x2b>
// Return a pointer to the first occurrence of 'c' in 's',
// or a null pointer if the string has no 'c'.
char *
strchr(const char *s, char c)
{
	for (; *s; s++)
  80127a:	83 c0 01             	add    $0x1,%eax
  80127d:	0f b6 10             	movzbl (%eax),%edx
  801280:	84 d2                	test   %dl,%dl
  801282:	75 f1                	jne    801275 <strchr+0x17>
  801284:	b8 00 00 00 00       	mov    $0x0,%eax
		if (*s == c)
			return (char *) s;
	return 0;
}
  801289:	5d                   	pop    %ebp
  80128a:	c3                   	ret    

0080128b <strfind>:

// Return a pointer to the first occurrence of 'c' in 's',
// or a pointer to the string-ending null character if the string has no 'c'.
char *
strfind(const char *s, char c)
{
  80128b:	55                   	push   %ebp
  80128c:	89 e5                	mov    %esp,%ebp
  80128e:	8b 45 08             	mov    0x8(%ebp),%eax
  801291:	0f b6 4d 0c          	movzbl 0xc(%ebp),%ecx
	for (; *s; s++)
  801295:	0f b6 10             	movzbl (%eax),%edx
  801298:	84 d2                	test   %dl,%dl
  80129a:	74 18                	je     8012b4 <strfind+0x29>
		if (*s == c)
  80129c:	38 ca                	cmp    %cl,%dl
  80129e:	75 0a                	jne    8012aa <strfind+0x1f>
  8012a0:	eb 12                	jmp    8012b4 <strfind+0x29>
  8012a2:	38 ca                	cmp    %cl,%dl
  8012a4:	8d 74 26 00          	lea    0x0(%esi,%eiz,1),%esi
  8012a8:	74 0a                	je     8012b4 <strfind+0x29>
// Return a pointer to the first occurrence of 'c' in 's',
// or a pointer to the string-ending null character if the string has no 'c'.
char *
strfind(const char *s, char c)
{
	for (; *s; s++)
  8012aa:	83 c0 01             	add    $0x1,%eax
  8012ad:	0f b6 10             	movzbl (%eax),%edx
  8012b0:	84 d2                	test   %dl,%dl
  8012b2:	75 ee                	jne    8012a2 <strfind+0x17>
		if (*s == c)
			break;
	return (char *) s;
}
  8012b4:	5d                   	pop    %ebp
  8012b5:	c3                   	ret    

008012b6 <memset>:

#if ASM
void *
memset(void *v, int c, size_t n)
{
  8012b6:	55                   	push   %ebp
  8012b7:	89 e5                	mov    %esp,%ebp
  8012b9:	83 ec 0c             	sub    $0xc,%esp
  8012bc:	89 1c 24             	mov    %ebx,(%esp)
  8012bf:	89 74 24 04          	mov    %esi,0x4(%esp)
  8012c3:	89 7c 24 08          	mov    %edi,0x8(%esp)
  8012c7:	8b 7d 08             	mov    0x8(%ebp),%edi
  8012ca:	8b 45 0c             	mov    0xc(%ebp),%eax
  8012cd:	8b 4d 10             	mov    0x10(%ebp),%ecx
	char *p;

	if (n == 0)
  8012d0:	85 c9                	test   %ecx,%ecx
  8012d2:	74 30                	je     801304 <memset+0x4e>
		return v;
	if ((int)v%4 == 0 && n%4 == 0) {
  8012d4:	f7 c7 03 00 00 00    	test   $0x3,%edi
  8012da:	75 25                	jne    801301 <memset+0x4b>
  8012dc:	f6 c1 03             	test   $0x3,%cl
  8012df:	75 20                	jne    801301 <memset+0x4b>
		c &= 0xFF;
  8012e1:	0f b6 d0             	movzbl %al,%edx
		c = (c<<24)|(c<<16)|(c<<8)|c;
  8012e4:	89 d3                	mov    %edx,%ebx
  8012e6:	c1 e3 08             	shl    $0x8,%ebx
  8012e9:	89 d6                	mov    %edx,%esi
  8012eb:	c1 e6 18             	shl    $0x18,%esi
  8012ee:	89 d0                	mov    %edx,%eax
  8012f0:	c1 e0 10             	shl    $0x10,%eax
  8012f3:	09 f0                	or     %esi,%eax
  8012f5:	09 d0                	or     %edx,%eax
		asm volatile("cld; rep stosl\n"
  8012f7:	09 d8                	or     %ebx,%eax
  8012f9:	c1 e9 02             	shr    $0x2,%ecx
  8012fc:	fc                   	cld    
  8012fd:	f3 ab                	rep stos %eax,%es:(%edi)
{
	char *p;

	if (n == 0)
		return v;
	if ((int)v%4 == 0 && n%4 == 0) {
  8012ff:	eb 03                	jmp    801304 <memset+0x4e>
		c = (c<<24)|(c<<16)|(c<<8)|c;
		asm volatile("cld; rep stosl\n"
			:: "D" (v), "a" (c), "c" (n/4)
			: "cc", "memory");
	} else
		asm volatile("cld; rep stosb\n"
  801301:	fc                   	cld    
  801302:	f3 aa                	rep stos %al,%es:(%edi)
			:: "D" (v), "a" (c), "c" (n)
			: "cc", "memory");
	return v;
}
  801304:	89 f8                	mov    %edi,%eax
  801306:	8b 1c 24             	mov    (%esp),%ebx
  801309:	8b 74 24 04          	mov    0x4(%esp),%esi
  80130d:	8b 7c 24 08          	mov    0x8(%esp),%edi
  801311:	89 ec                	mov    %ebp,%esp
  801313:	5d                   	pop    %ebp
  801314:	c3                   	ret    

00801315 <memmove>:

void *
memmove(void *dst, const void *src, size_t n)
{
  801315:	55                   	push   %ebp
  801316:	89 e5                	mov    %esp,%ebp
  801318:	83 ec 08             	sub    $0x8,%esp
  80131b:	89 34 24             	mov    %esi,(%esp)
  80131e:	89 7c 24 04          	mov    %edi,0x4(%esp)
  801322:	8b 45 08             	mov    0x8(%ebp),%eax
  801325:	8b 4d 10             	mov    0x10(%ebp),%ecx
	const char *s;
	char *d;
	
	s = src;
  801328:	8b 75 0c             	mov    0xc(%ebp),%esi
	d = dst;
  80132b:	89 c7                	mov    %eax,%edi
	if (s < d && s + n > d) {
  80132d:	39 c6                	cmp    %eax,%esi
  80132f:	73 35                	jae    801366 <memmove+0x51>
  801331:	8d 14 0e             	lea    (%esi,%ecx,1),%edx
  801334:	39 d0                	cmp    %edx,%eax
  801336:	73 2e                	jae    801366 <memmove+0x51>
		s += n;
		d += n;
  801338:	01 cf                	add    %ecx,%edi
		if ((int)s%4 == 0 && (int)d%4 == 0 && n%4 == 0)
  80133a:	f6 c2 03             	test   $0x3,%dl
  80133d:	75 1b                	jne    80135a <memmove+0x45>
  80133f:	f7 c7 03 00 00 00    	test   $0x3,%edi
  801345:	75 13                	jne    80135a <memmove+0x45>
  801347:	f6 c1 03             	test   $0x3,%cl
  80134a:	75 0e                	jne    80135a <memmove+0x45>
			asm volatile("std; rep movsl\n"
  80134c:	83 ef 04             	sub    $0x4,%edi
  80134f:	8d 72 fc             	lea    -0x4(%edx),%esi
  801352:	c1 e9 02             	shr    $0x2,%ecx
  801355:	fd                   	std    
  801356:	f3 a5                	rep movsl %ds:(%esi),%es:(%edi)
	s = src;
	d = dst;
	if (s < d && s + n > d) {
		s += n;
		d += n;
		if ((int)s%4 == 0 && (int)d%4 == 0 && n%4 == 0)
  801358:	eb 09                	jmp    801363 <memmove+0x4e>
			asm volatile("std; rep movsl\n"
				:: "D" (d-4), "S" (s-4), "c" (n/4) : "cc", "memory");
		else
			asm volatile("std; rep movsb\n"
  80135a:	83 ef 01             	sub    $0x1,%edi
  80135d:	8d 72 ff             	lea    -0x1(%edx),%esi
  801360:	fd                   	std    
  801361:	f3 a4                	rep movsb %ds:(%esi),%es:(%edi)
				:: "D" (d-1), "S" (s-1), "c" (n) : "cc", "memory");
		// Some versions of GCC rely on DF being clear
		asm volatile("cld" ::: "cc");
  801363:	fc                   	cld    
	const char *s;
	char *d;
	
	s = src;
	d = dst;
	if (s < d && s + n > d) {
  801364:	eb 20                	jmp    801386 <memmove+0x71>
			asm volatile("std; rep movsb\n"
				:: "D" (d-1), "S" (s-1), "c" (n) : "cc", "memory");
		// Some versions of GCC rely on DF being clear
		asm volatile("cld" ::: "cc");
	} else {
		if ((int)s%4 == 0 && (int)d%4 == 0 && n%4 == 0)
  801366:	f7 c6 03 00 00 00    	test   $0x3,%esi
  80136c:	75 15                	jne    801383 <memmove+0x6e>
  80136e:	f7 c7 03 00 00 00    	test   $0x3,%edi
  801374:	75 0d                	jne    801383 <memmove+0x6e>
  801376:	f6 c1 03             	test   $0x3,%cl
  801379:	75 08                	jne    801383 <memmove+0x6e>
			asm volatile("cld; rep movsl\n"
  80137b:	c1 e9 02             	shr    $0x2,%ecx
  80137e:	fc                   	cld    
  80137f:	f3 a5                	rep movsl %ds:(%esi),%es:(%edi)
			asm volatile("std; rep movsb\n"
				:: "D" (d-1), "S" (s-1), "c" (n) : "cc", "memory");
		// Some versions of GCC rely on DF being clear
		asm volatile("cld" ::: "cc");
	} else {
		if ((int)s%4 == 0 && (int)d%4 == 0 && n%4 == 0)
  801381:	eb 03                	jmp    801386 <memmove+0x71>
			asm volatile("cld; rep movsl\n"
				:: "D" (d), "S" (s), "c" (n/4) : "cc", "memory");
		else
			asm volatile("cld; rep movsb\n"
  801383:	fc                   	cld    
  801384:	f3 a4                	rep movsb %ds:(%esi),%es:(%edi)
				:: "D" (d), "S" (s), "c" (n) : "cc", "memory");
	}
	return dst;
}
  801386:	8b 34 24             	mov    (%esp),%esi
  801389:	8b 7c 24 04          	mov    0x4(%esp),%edi
  80138d:	89 ec                	mov    %ebp,%esp
  80138f:	5d                   	pop    %ebp
  801390:	c3                   	ret    

00801391 <memcpy>:

/* sigh - gcc emits references to this for structure assignments! */
/* it is *not* prototyped in inc/string.h - do not use directly. */
void *
memcpy(void *dst, void *src, size_t n)
{
  801391:	55                   	push   %ebp
  801392:	89 e5                	mov    %esp,%ebp
  801394:	83 ec 0c             	sub    $0xc,%esp
	return memmove(dst, src, n);
  801397:	8b 45 10             	mov    0x10(%ebp),%eax
  80139a:	89 44 24 08          	mov    %eax,0x8(%esp)
  80139e:	8b 45 0c             	mov    0xc(%ebp),%eax
  8013a1:	89 44 24 04          	mov    %eax,0x4(%esp)
  8013a5:	8b 45 08             	mov    0x8(%ebp),%eax
  8013a8:	89 04 24             	mov    %eax,(%esp)
  8013ab:	e8 65 ff ff ff       	call   801315 <memmove>
}
  8013b0:	c9                   	leave  
  8013b1:	c3                   	ret    

008013b2 <memcmp>:

int
memcmp(const void *v1, const void *v2, size_t n)
{
  8013b2:	55                   	push   %ebp
  8013b3:	89 e5                	mov    %esp,%ebp
  8013b5:	57                   	push   %edi
  8013b6:	56                   	push   %esi
  8013b7:	53                   	push   %ebx
  8013b8:	8b 75 08             	mov    0x8(%ebp),%esi
  8013bb:	8b 7d 0c             	mov    0xc(%ebp),%edi
  8013be:	8b 4d 10             	mov    0x10(%ebp),%ecx
	const uint8_t *s1 = (const uint8_t *) v1;
	const uint8_t *s2 = (const uint8_t *) v2;

	while (n-- > 0) {
  8013c1:	85 c9                	test   %ecx,%ecx
  8013c3:	74 36                	je     8013fb <memcmp+0x49>
		if (*s1 != *s2)
  8013c5:	0f b6 06             	movzbl (%esi),%eax
  8013c8:	0f b6 1f             	movzbl (%edi),%ebx
  8013cb:	38 d8                	cmp    %bl,%al
  8013cd:	74 20                	je     8013ef <memcmp+0x3d>
  8013cf:	eb 14                	jmp    8013e5 <memcmp+0x33>
  8013d1:	0f b6 44 16 01       	movzbl 0x1(%esi,%edx,1),%eax
  8013d6:	0f b6 5c 17 01       	movzbl 0x1(%edi,%edx,1),%ebx
  8013db:	83 c2 01             	add    $0x1,%edx
  8013de:	83 e9 01             	sub    $0x1,%ecx
  8013e1:	38 d8                	cmp    %bl,%al
  8013e3:	74 12                	je     8013f7 <memcmp+0x45>
			return (int) *s1 - (int) *s2;
  8013e5:	0f b6 c0             	movzbl %al,%eax
  8013e8:	0f b6 db             	movzbl %bl,%ebx
  8013eb:	29 d8                	sub    %ebx,%eax
  8013ed:	eb 11                	jmp    801400 <memcmp+0x4e>
memcmp(const void *v1, const void *v2, size_t n)
{
	const uint8_t *s1 = (const uint8_t *) v1;
	const uint8_t *s2 = (const uint8_t *) v2;

	while (n-- > 0) {
  8013ef:	83 e9 01             	sub    $0x1,%ecx
  8013f2:	ba 00 00 00 00       	mov    $0x0,%edx
  8013f7:	85 c9                	test   %ecx,%ecx
  8013f9:	75 d6                	jne    8013d1 <memcmp+0x1f>
  8013fb:	b8 00 00 00 00       	mov    $0x0,%eax
			return (int) *s1 - (int) *s2;
		s1++, s2++;
	}

	return 0;
}
  801400:	5b                   	pop    %ebx
  801401:	5e                   	pop    %esi
  801402:	5f                   	pop    %edi
  801403:	5d                   	pop    %ebp
  801404:	c3                   	ret    

00801405 <memfind>:

void *
memfind(const void *s, int c, size_t n)
{
  801405:	55                   	push   %ebp
  801406:	89 e5                	mov    %esp,%ebp
  801408:	8b 45 08             	mov    0x8(%ebp),%eax
	const void *ends = (const char *) s + n;
  80140b:	89 c2                	mov    %eax,%edx
  80140d:	03 55 10             	add    0x10(%ebp),%edx
	for (; s < ends; s++)
  801410:	39 d0                	cmp    %edx,%eax
  801412:	73 15                	jae    801429 <memfind+0x24>
		if (*(const unsigned char *) s == (unsigned char) c)
  801414:	0f b6 4d 0c          	movzbl 0xc(%ebp),%ecx
  801418:	38 08                	cmp    %cl,(%eax)
  80141a:	75 06                	jne    801422 <memfind+0x1d>
  80141c:	eb 0b                	jmp    801429 <memfind+0x24>
  80141e:	38 08                	cmp    %cl,(%eax)
  801420:	74 07                	je     801429 <memfind+0x24>

void *
memfind(const void *s, int c, size_t n)
{
	const void *ends = (const char *) s + n;
	for (; s < ends; s++)
  801422:	83 c0 01             	add    $0x1,%eax
  801425:	39 c2                	cmp    %eax,%edx
  801427:	77 f5                	ja     80141e <memfind+0x19>
		if (*(const unsigned char *) s == (unsigned char) c)
			break;
	return (void *) s;
}
  801429:	5d                   	pop    %ebp
  80142a:	c3                   	ret    

0080142b <strtol>:

long
strtol(const char *s, char **endptr, int base)
{
  80142b:	55                   	push   %ebp
  80142c:	89 e5                	mov    %esp,%ebp
  80142e:	57                   	push   %edi
  80142f:	56                   	push   %esi
  801430:	53                   	push   %ebx
  801431:	83 ec 04             	sub    $0x4,%esp
  801434:	8b 55 08             	mov    0x8(%ebp),%edx
  801437:	8b 5d 10             	mov    0x10(%ebp),%ebx
	int neg = 0;
	long val = 0;

	// gobble initial whitespace
	while (*s == ' ' || *s == '\t')
  80143a:	0f b6 02             	movzbl (%edx),%eax
  80143d:	3c 20                	cmp    $0x20,%al
  80143f:	74 04                	je     801445 <strtol+0x1a>
  801441:	3c 09                	cmp    $0x9,%al
  801443:	75 0e                	jne    801453 <strtol+0x28>
		s++;
  801445:	83 c2 01             	add    $0x1,%edx
{
	int neg = 0;
	long val = 0;

	// gobble initial whitespace
	while (*s == ' ' || *s == '\t')
  801448:	0f b6 02             	movzbl (%edx),%eax
  80144b:	3c 20                	cmp    $0x20,%al
  80144d:	74 f6                	je     801445 <strtol+0x1a>
  80144f:	3c 09                	cmp    $0x9,%al
  801451:	74 f2                	je     801445 <strtol+0x1a>
		s++;

	// plus/minus sign
	if (*s == '+')
  801453:	3c 2b                	cmp    $0x2b,%al
  801455:	75 0c                	jne    801463 <strtol+0x38>
		s++;
  801457:	83 c2 01             	add    $0x1,%edx
  80145a:	c7 45 f0 00 00 00 00 	movl   $0x0,-0x10(%ebp)
  801461:	eb 15                	jmp    801478 <strtol+0x4d>
	else if (*s == '-')
  801463:	c7 45 f0 00 00 00 00 	movl   $0x0,-0x10(%ebp)
  80146a:	3c 2d                	cmp    $0x2d,%al
  80146c:	75 0a                	jne    801478 <strtol+0x4d>
		s++, neg = 1;
  80146e:	83 c2 01             	add    $0x1,%edx
  801471:	c7 45 f0 01 00 00 00 	movl   $0x1,-0x10(%ebp)

	// hex or octal base prefix
	if ((base == 0 || base == 16) && (s[0] == '0' && s[1] == 'x'))
  801478:	85 db                	test   %ebx,%ebx
  80147a:	0f 94 c0             	sete   %al
  80147d:	74 05                	je     801484 <strtol+0x59>
  80147f:	83 fb 10             	cmp    $0x10,%ebx
  801482:	75 18                	jne    80149c <strtol+0x71>
  801484:	80 3a 30             	cmpb   $0x30,(%edx)
  801487:	75 13                	jne    80149c <strtol+0x71>
  801489:	80 7a 01 78          	cmpb   $0x78,0x1(%edx)
  80148d:	8d 76 00             	lea    0x0(%esi),%esi
  801490:	75 0a                	jne    80149c <strtol+0x71>
		s += 2, base = 16;
  801492:	83 c2 02             	add    $0x2,%edx
  801495:	bb 10 00 00 00       	mov    $0x10,%ebx
		s++;
	else if (*s == '-')
		s++, neg = 1;

	// hex or octal base prefix
	if ((base == 0 || base == 16) && (s[0] == '0' && s[1] == 'x'))
  80149a:	eb 15                	jmp    8014b1 <strtol+0x86>
		s += 2, base = 16;
	else if (base == 0 && s[0] == '0')
  80149c:	84 c0                	test   %al,%al
  80149e:	66 90                	xchg   %ax,%ax
  8014a0:	74 0f                	je     8014b1 <strtol+0x86>
  8014a2:	bb 0a 00 00 00       	mov    $0xa,%ebx
  8014a7:	80 3a 30             	cmpb   $0x30,(%edx)
  8014aa:	75 05                	jne    8014b1 <strtol+0x86>
		s++, base = 8;
  8014ac:	83 c2 01             	add    $0x1,%edx
  8014af:	b3 08                	mov    $0x8,%bl
		s++, neg = 1;

	// hex or octal base prefix
	if ((base == 0 || base == 16) && (s[0] == '0' && s[1] == 'x'))
		s += 2, base = 16;
	else if (base == 0 && s[0] == '0')
  8014b1:	b8 00 00 00 00       	mov    $0x0,%eax
  8014b6:	89 de                	mov    %ebx,%esi

	// digits
	while (1) {
		int dig;

		if (*s >= '0' && *s <= '9')
  8014b8:	0f b6 0a             	movzbl (%edx),%ecx
  8014bb:	89 cf                	mov    %ecx,%edi
  8014bd:	8d 59 d0             	lea    -0x30(%ecx),%ebx
  8014c0:	80 fb 09             	cmp    $0x9,%bl
  8014c3:	77 08                	ja     8014cd <strtol+0xa2>
			dig = *s - '0';
  8014c5:	0f be c9             	movsbl %cl,%ecx
  8014c8:	83 e9 30             	sub    $0x30,%ecx
  8014cb:	eb 1e                	jmp    8014eb <strtol+0xc0>
		else if (*s >= 'a' && *s <= 'z')
  8014cd:	8d 5f 9f             	lea    -0x61(%edi),%ebx
  8014d0:	80 fb 19             	cmp    $0x19,%bl
  8014d3:	77 08                	ja     8014dd <strtol+0xb2>
			dig = *s - 'a' + 10;
  8014d5:	0f be c9             	movsbl %cl,%ecx
  8014d8:	83 e9 57             	sub    $0x57,%ecx
  8014db:	eb 0e                	jmp    8014eb <strtol+0xc0>
		else if (*s >= 'A' && *s <= 'Z')
  8014dd:	8d 5f bf             	lea    -0x41(%edi),%ebx
  8014e0:	80 fb 19             	cmp    $0x19,%bl
  8014e3:	77 15                	ja     8014fa <strtol+0xcf>
			dig = *s - 'A' + 10;
  8014e5:	0f be c9             	movsbl %cl,%ecx
  8014e8:	83 e9 37             	sub    $0x37,%ecx
		else
			break;
		if (dig >= base)
  8014eb:	39 f1                	cmp    %esi,%ecx
  8014ed:	7d 0b                	jge    8014fa <strtol+0xcf>
			break;
		s++, val = (val * base) + dig;
  8014ef:	83 c2 01             	add    $0x1,%edx
  8014f2:	0f af c6             	imul   %esi,%eax
  8014f5:	8d 04 01             	lea    (%ecx,%eax,1),%eax
		// we don't properly detect overflow!
	}
  8014f8:	eb be                	jmp    8014b8 <strtol+0x8d>
  8014fa:	89 c1                	mov    %eax,%ecx

	if (endptr)
  8014fc:	83 7d 0c 00          	cmpl   $0x0,0xc(%ebp)
  801500:	74 05                	je     801507 <strtol+0xdc>
		*endptr = (char *) s;
  801502:	8b 5d 0c             	mov    0xc(%ebp),%ebx
  801505:	89 13                	mov    %edx,(%ebx)
	return (neg ? -val : val);
  801507:	83 7d f0 00          	cmpl   $0x0,-0x10(%ebp)
  80150b:	74 04                	je     801511 <strtol+0xe6>
  80150d:	89 c8                	mov    %ecx,%eax
  80150f:	f7 d8                	neg    %eax
}
  801511:	83 c4 04             	add    $0x4,%esp
  801514:	5b                   	pop    %ebx
  801515:	5e                   	pop    %esi
  801516:	5f                   	pop    %edi
  801517:	5d                   	pop    %ebp
  801518:	c3                   	ret    
  801519:	00 00                	add    %al,(%eax)
	...

0080151c <sys_cgetc>:
	syscall(SYS_cputs, 0, (uint32_t)s, len, 0, 0, 0);
}

int
sys_cgetc(void)
{
  80151c:	55                   	push   %ebp
  80151d:	89 e5                	mov    %esp,%ebp
  80151f:	83 ec 0c             	sub    $0xc,%esp
  801522:	89 1c 24             	mov    %ebx,(%esp)
  801525:	89 74 24 04          	mov    %esi,0x4(%esp)
  801529:	89 7c 24 08          	mov    %edi,0x8(%esp)
	// 
	// The last clause tells the assembler that this can
	// potentially change the condition codes and arbitrary
	// memory locations.

	asm volatile("int %1\n"
  80152d:	ba 00 00 00 00       	mov    $0x0,%edx
  801532:	b8 01 00 00 00       	mov    $0x1,%eax
  801537:	89 d1                	mov    %edx,%ecx
  801539:	89 d3                	mov    %edx,%ebx
  80153b:	89 d7                	mov    %edx,%edi
  80153d:	89 d6                	mov    %edx,%esi
  80153f:	cd 30                	int    $0x30

int
sys_cgetc(void)
{
	return syscall(SYS_cgetc, 0, 0, 0, 0, 0, 0);
}
  801541:	8b 1c 24             	mov    (%esp),%ebx
  801544:	8b 74 24 04          	mov    0x4(%esp),%esi
  801548:	8b 7c 24 08          	mov    0x8(%esp),%edi
  80154c:	89 ec                	mov    %ebp,%esp
  80154e:	5d                   	pop    %ebp
  80154f:	c3                   	ret    

00801550 <sys_cputs>:
	return ret;
}

void
sys_cputs(const char *s, size_t len)
{
  801550:	55                   	push   %ebp
  801551:	89 e5                	mov    %esp,%ebp
  801553:	83 ec 0c             	sub    $0xc,%esp
  801556:	89 1c 24             	mov    %ebx,(%esp)
  801559:	89 74 24 04          	mov    %esi,0x4(%esp)
  80155d:	89 7c 24 08          	mov    %edi,0x8(%esp)
	// 
	// The last clause tells the assembler that this can
	// potentially change the condition codes and arbitrary
	// memory locations.

	asm volatile("int %1\n"
  801561:	b8 00 00 00 00       	mov    $0x0,%eax
  801566:	8b 4d 0c             	mov    0xc(%ebp),%ecx
  801569:	8b 55 08             	mov    0x8(%ebp),%edx
  80156c:	89 c3                	mov    %eax,%ebx
  80156e:	89 c7                	mov    %eax,%edi
  801570:	89 c6                	mov    %eax,%esi
  801572:	cd 30                	int    $0x30

void
sys_cputs(const char *s, size_t len)
{
	syscall(SYS_cputs, 0, (uint32_t)s, len, 0, 0, 0);
}
  801574:	8b 1c 24             	mov    (%esp),%ebx
  801577:	8b 74 24 04          	mov    0x4(%esp),%esi
  80157b:	8b 7c 24 08          	mov    0x8(%esp),%edi
  80157f:	89 ec                	mov    %ebp,%esp
  801581:	5d                   	pop    %ebp
  801582:	c3                   	ret    

00801583 <sys_page_insert>:
{
	return syscall(SYS_page_waste, 0, (uint32_t)p, (uint32_t)n, 0, 0,0);
}
int
sys_page_insert(envid_t envid, void *va, struct Page *p, int perm)
{
  801583:	55                   	push   %ebp
  801584:	89 e5                	mov    %esp,%ebp
  801586:	83 ec 38             	sub    $0x38,%esp
  801589:	89 5d f4             	mov    %ebx,-0xc(%ebp)
  80158c:	89 75 f8             	mov    %esi,-0x8(%ebp)
  80158f:	89 7d fc             	mov    %edi,-0x4(%ebp)
	// 
	// The last clause tells the assembler that this can
	// potentially change the condition codes and arbitrary
	// memory locations.

	asm volatile("int %1\n"
  801592:	be 00 00 00 00       	mov    $0x0,%esi
  801597:	b8 12 00 00 00       	mov    $0x12,%eax
  80159c:	8b 7d 14             	mov    0x14(%ebp),%edi
  80159f:	8b 5d 10             	mov    0x10(%ebp),%ebx
  8015a2:	8b 4d 0c             	mov    0xc(%ebp),%ecx
  8015a5:	8b 55 08             	mov    0x8(%ebp),%edx
  8015a8:	cd 30                	int    $0x30
		  "b" (a3),
		  "D" (a4),
		  "S" (a5)
		: "cc", "memory");
	
	if(check && ret > 0)
  8015aa:	85 c0                	test   %eax,%eax
  8015ac:	7e 28                	jle    8015d6 <sys_page_insert+0x53>
		panic("syscall %d returned %d (> 0)", num, ret);
  8015ae:	89 44 24 10          	mov    %eax,0x10(%esp)
  8015b2:	c7 44 24 0c 12 00 00 	movl   $0x12,0xc(%esp)
  8015b9:	00 
  8015ba:	c7 44 24 08 1f 2b 81 	movl   $0x812b1f,0x8(%esp)
  8015c1:	00 
  8015c2:	c7 44 24 04 23 00 00 	movl   $0x23,0x4(%esp)
  8015c9:	00 
  8015ca:	c7 04 24 3c 2b 81 00 	movl   $0x812b3c,(%esp)
  8015d1:	e8 fe f3 ff ff       	call   8009d4 <_panic>
}
int
sys_page_insert(envid_t envid, void *va, struct Page *p, int perm)
{
	return syscall(SYS_page_insert, 1, envid, (uint32_t) va, (uint32_t)p, perm, 0);
}
  8015d6:	8b 5d f4             	mov    -0xc(%ebp),%ebx
  8015d9:	8b 75 f8             	mov    -0x8(%ebp),%esi
  8015dc:	8b 7d fc             	mov    -0x4(%ebp),%edi
  8015df:	89 ec                	mov    %ebp,%esp
  8015e1:	5d                   	pop    %ebp
  8015e2:	c3                   	ret    

008015e3 <sys_page_waste>:
{
	return (int)syscall(SYS_receive_packet, 0, (uint32_t)buffer, 0,0,0,0);
}

int sys_page_waste(struct Page **p, int n)
{
  8015e3:	55                   	push   %ebp
  8015e4:	89 e5                	mov    %esp,%ebp
  8015e6:	83 ec 0c             	sub    $0xc,%esp
  8015e9:	89 1c 24             	mov    %ebx,(%esp)
  8015ec:	89 74 24 04          	mov    %esi,0x4(%esp)
  8015f0:	89 7c 24 08          	mov    %edi,0x8(%esp)
	// 
	// The last clause tells the assembler that this can
	// potentially change the condition codes and arbitrary
	// memory locations.

	asm volatile("int %1\n"
  8015f4:	bb 00 00 00 00       	mov    $0x0,%ebx
  8015f9:	b8 11 00 00 00       	mov    $0x11,%eax
  8015fe:	8b 4d 0c             	mov    0xc(%ebp),%ecx
  801601:	8b 55 08             	mov    0x8(%ebp),%edx
  801604:	89 df                	mov    %ebx,%edi
  801606:	89 de                	mov    %ebx,%esi
  801608:	cd 30                	int    $0x30
}

int sys_page_waste(struct Page **p, int n)
{
	return syscall(SYS_page_waste, 0, (uint32_t)p, (uint32_t)n, 0, 0,0);
}
  80160a:	8b 1c 24             	mov    (%esp),%ebx
  80160d:	8b 74 24 04          	mov    0x4(%esp),%esi
  801611:	8b 7c 24 08          	mov    0x8(%esp),%edi
  801615:	89 ec                	mov    %ebp,%esp
  801617:	5d                   	pop    %ebp
  801618:	c3                   	ret    

00801619 <sys_receive_packet>:
{
	return (int)syscall(SYS_transmit_packet, 1, (uint32_t)data, len, 0,0,0);
}

int sys_receive_packet(void* buffer)
{
  801619:	55                   	push   %ebp
  80161a:	89 e5                	mov    %esp,%ebp
  80161c:	83 ec 0c             	sub    $0xc,%esp
  80161f:	89 1c 24             	mov    %ebx,(%esp)
  801622:	89 74 24 04          	mov    %esi,0x4(%esp)
  801626:	89 7c 24 08          	mov    %edi,0x8(%esp)
	// 
	// The last clause tells the assembler that this can
	// potentially change the condition codes and arbitrary
	// memory locations.

	asm volatile("int %1\n"
  80162a:	b9 00 00 00 00       	mov    $0x0,%ecx
  80162f:	b8 10 00 00 00       	mov    $0x10,%eax
  801634:	8b 55 08             	mov    0x8(%ebp),%edx
  801637:	89 cb                	mov    %ecx,%ebx
  801639:	89 cf                	mov    %ecx,%edi
  80163b:	89 ce                	mov    %ecx,%esi
  80163d:	cd 30                	int    $0x30
}

int sys_receive_packet(void* buffer)
{
	return (int)syscall(SYS_receive_packet, 0, (uint32_t)buffer, 0,0,0,0);
}
  80163f:	8b 1c 24             	mov    (%esp),%ebx
  801642:	8b 74 24 04          	mov    0x4(%esp),%esi
  801646:	8b 7c 24 08          	mov    0x8(%esp),%edi
  80164a:	89 ec                	mov    %ebp,%esp
  80164c:	5d                   	pop    %ebp
  80164d:	c3                   	ret    

0080164e <sys_transmit_packet>:
{
	return (unsigned int) syscall(SYS_time_msec, 0, 0, 0, 0, 0,0);
}

int sys_transmit_packet(void* data, uint32_t len)
{
  80164e:	55                   	push   %ebp
  80164f:	89 e5                	mov    %esp,%ebp
  801651:	83 ec 38             	sub    $0x38,%esp
  801654:	89 5d f4             	mov    %ebx,-0xc(%ebp)
  801657:	89 75 f8             	mov    %esi,-0x8(%ebp)
  80165a:	89 7d fc             	mov    %edi,-0x4(%ebp)
	// 
	// The last clause tells the assembler that this can
	// potentially change the condition codes and arbitrary
	// memory locations.

	asm volatile("int %1\n"
  80165d:	bb 00 00 00 00       	mov    $0x0,%ebx
  801662:	b8 0f 00 00 00       	mov    $0xf,%eax
  801667:	8b 4d 0c             	mov    0xc(%ebp),%ecx
  80166a:	8b 55 08             	mov    0x8(%ebp),%edx
  80166d:	89 df                	mov    %ebx,%edi
  80166f:	89 de                	mov    %ebx,%esi
  801671:	cd 30                	int    $0x30
		  "b" (a3),
		  "D" (a4),
		  "S" (a5)
		: "cc", "memory");
	
	if(check && ret > 0)
  801673:	85 c0                	test   %eax,%eax
  801675:	7e 28                	jle    80169f <sys_transmit_packet+0x51>
		panic("syscall %d returned %d (> 0)", num, ret);
  801677:	89 44 24 10          	mov    %eax,0x10(%esp)
  80167b:	c7 44 24 0c 0f 00 00 	movl   $0xf,0xc(%esp)
  801682:	00 
  801683:	c7 44 24 08 1f 2b 81 	movl   $0x812b1f,0x8(%esp)
  80168a:	00 
  80168b:	c7 44 24 04 23 00 00 	movl   $0x23,0x4(%esp)
  801692:	00 
  801693:	c7 04 24 3c 2b 81 00 	movl   $0x812b3c,(%esp)
  80169a:	e8 35 f3 ff ff       	call   8009d4 <_panic>
}

int sys_transmit_packet(void* data, uint32_t len)
{
	return (int)syscall(SYS_transmit_packet, 1, (uint32_t)data, len, 0,0,0);
}
  80169f:	8b 5d f4             	mov    -0xc(%ebp),%ebx
  8016a2:	8b 75 f8             	mov    -0x8(%ebp),%esi
  8016a5:	8b 7d fc             	mov    -0x4(%ebp),%edi
  8016a8:	89 ec                	mov    %ebp,%esp
  8016aa:	5d                   	pop    %ebp
  8016ab:	c3                   	ret    

008016ac <sys_time_msec>:
	return syscall(SYS_ipc_recv, 1, (uint32_t)dstva, 0, 0, 0, 0);
}

unsigned int
sys_time_msec(void)
{
  8016ac:	55                   	push   %ebp
  8016ad:	89 e5                	mov    %esp,%ebp
  8016af:	83 ec 0c             	sub    $0xc,%esp
  8016b2:	89 1c 24             	mov    %ebx,(%esp)
  8016b5:	89 74 24 04          	mov    %esi,0x4(%esp)
  8016b9:	89 7c 24 08          	mov    %edi,0x8(%esp)
	// 
	// The last clause tells the assembler that this can
	// potentially change the condition codes and arbitrary
	// memory locations.

	asm volatile("int %1\n"
  8016bd:	ba 00 00 00 00       	mov    $0x0,%edx
  8016c2:	b8 0e 00 00 00       	mov    $0xe,%eax
  8016c7:	89 d1                	mov    %edx,%ecx
  8016c9:	89 d3                	mov    %edx,%ebx
  8016cb:	89 d7                	mov    %edx,%edi
  8016cd:	89 d6                	mov    %edx,%esi
  8016cf:	cd 30                	int    $0x30

unsigned int
sys_time_msec(void)
{
	return (unsigned int) syscall(SYS_time_msec, 0, 0, 0, 0, 0,0);
}
  8016d1:	8b 1c 24             	mov    (%esp),%ebx
  8016d4:	8b 74 24 04          	mov    0x4(%esp),%esi
  8016d8:	8b 7c 24 08          	mov    0x8(%esp),%edi
  8016dc:	89 ec                	mov    %ebp,%esp
  8016de:	5d                   	pop    %ebp
  8016df:	c3                   	ret    

008016e0 <sys_ipc_recv>:
	return syscall(SYS_ipc_try_send, 0, envid, value, (uint32_t) srcva, perm, 0);
}

int
sys_ipc_recv(void *dstva)
{
  8016e0:	55                   	push   %ebp
  8016e1:	89 e5                	mov    %esp,%ebp
  8016e3:	83 ec 38             	sub    $0x38,%esp
  8016e6:	89 5d f4             	mov    %ebx,-0xc(%ebp)
  8016e9:	89 75 f8             	mov    %esi,-0x8(%ebp)
  8016ec:	89 7d fc             	mov    %edi,-0x4(%ebp)
	// 
	// The last clause tells the assembler that this can
	// potentially change the condition codes and arbitrary
	// memory locations.

	asm volatile("int %1\n"
  8016ef:	b9 00 00 00 00       	mov    $0x0,%ecx
  8016f4:	b8 0d 00 00 00       	mov    $0xd,%eax
  8016f9:	8b 55 08             	mov    0x8(%ebp),%edx
  8016fc:	89 cb                	mov    %ecx,%ebx
  8016fe:	89 cf                	mov    %ecx,%edi
  801700:	89 ce                	mov    %ecx,%esi
  801702:	cd 30                	int    $0x30
		  "b" (a3),
		  "D" (a4),
		  "S" (a5)
		: "cc", "memory");
	
	if(check && ret > 0)
  801704:	85 c0                	test   %eax,%eax
  801706:	7e 28                	jle    801730 <sys_ipc_recv+0x50>
		panic("syscall %d returned %d (> 0)", num, ret);
  801708:	89 44 24 10          	mov    %eax,0x10(%esp)
  80170c:	c7 44 24 0c 0d 00 00 	movl   $0xd,0xc(%esp)
  801713:	00 
  801714:	c7 44 24 08 1f 2b 81 	movl   $0x812b1f,0x8(%esp)
  80171b:	00 
  80171c:	c7 44 24 04 23 00 00 	movl   $0x23,0x4(%esp)
  801723:	00 
  801724:	c7 04 24 3c 2b 81 00 	movl   $0x812b3c,(%esp)
  80172b:	e8 a4 f2 ff ff       	call   8009d4 <_panic>

int
sys_ipc_recv(void *dstva)
{
	return syscall(SYS_ipc_recv, 1, (uint32_t)dstva, 0, 0, 0, 0);
}
  801730:	8b 5d f4             	mov    -0xc(%ebp),%ebx
  801733:	8b 75 f8             	mov    -0x8(%ebp),%esi
  801736:	8b 7d fc             	mov    -0x4(%ebp),%edi
  801739:	89 ec                	mov    %ebp,%esp
  80173b:	5d                   	pop    %ebp
  80173c:	c3                   	ret    

0080173d <sys_ipc_try_send>:
	return syscall(SYS_env_set_pgfault_upcall, 1, envid, (uint32_t) upcall, 0, 0, 0);
}

int
sys_ipc_try_send(envid_t envid, uint32_t value, void *srcva, int perm)
{
  80173d:	55                   	push   %ebp
  80173e:	89 e5                	mov    %esp,%ebp
  801740:	83 ec 0c             	sub    $0xc,%esp
  801743:	89 1c 24             	mov    %ebx,(%esp)
  801746:	89 74 24 04          	mov    %esi,0x4(%esp)
  80174a:	89 7c 24 08          	mov    %edi,0x8(%esp)
	// 
	// The last clause tells the assembler that this can
	// potentially change the condition codes and arbitrary
	// memory locations.

	asm volatile("int %1\n"
  80174e:	be 00 00 00 00       	mov    $0x0,%esi
  801753:	b8 0c 00 00 00       	mov    $0xc,%eax
  801758:	8b 7d 14             	mov    0x14(%ebp),%edi
  80175b:	8b 5d 10             	mov    0x10(%ebp),%ebx
  80175e:	8b 4d 0c             	mov    0xc(%ebp),%ecx
  801761:	8b 55 08             	mov    0x8(%ebp),%edx
  801764:	cd 30                	int    $0x30

int
sys_ipc_try_send(envid_t envid, uint32_t value, void *srcva, int perm)
{
	return syscall(SYS_ipc_try_send, 0, envid, value, (uint32_t) srcva, perm, 0);
}
  801766:	8b 1c 24             	mov    (%esp),%ebx
  801769:	8b 74 24 04          	mov    0x4(%esp),%esi
  80176d:	8b 7c 24 08          	mov    0x8(%esp),%edi
  801771:	89 ec                	mov    %ebp,%esp
  801773:	5d                   	pop    %ebp
  801774:	c3                   	ret    

00801775 <sys_env_set_pgfault_upcall>:
	return syscall(SYS_env_set_trapframe, 1, envid, (uint32_t) tf, 0, 0, 0);
}

int
sys_env_set_pgfault_upcall(envid_t envid, void *upcall)
{
  801775:	55                   	push   %ebp
  801776:	89 e5                	mov    %esp,%ebp
  801778:	83 ec 38             	sub    $0x38,%esp
  80177b:	89 5d f4             	mov    %ebx,-0xc(%ebp)
  80177e:	89 75 f8             	mov    %esi,-0x8(%ebp)
  801781:	89 7d fc             	mov    %edi,-0x4(%ebp)
	// 
	// The last clause tells the assembler that this can
	// potentially change the condition codes and arbitrary
	// memory locations.

	asm volatile("int %1\n"
  801784:	bb 00 00 00 00       	mov    $0x0,%ebx
  801789:	b8 0a 00 00 00       	mov    $0xa,%eax
  80178e:	8b 4d 0c             	mov    0xc(%ebp),%ecx
  801791:	8b 55 08             	mov    0x8(%ebp),%edx
  801794:	89 df                	mov    %ebx,%edi
  801796:	89 de                	mov    %ebx,%esi
  801798:	cd 30                	int    $0x30
		  "b" (a3),
		  "D" (a4),
		  "S" (a5)
		: "cc", "memory");
	
	if(check && ret > 0)
  80179a:	85 c0                	test   %eax,%eax
  80179c:	7e 28                	jle    8017c6 <sys_env_set_pgfault_upcall+0x51>
		panic("syscall %d returned %d (> 0)", num, ret);
  80179e:	89 44 24 10          	mov    %eax,0x10(%esp)
  8017a2:	c7 44 24 0c 0a 00 00 	movl   $0xa,0xc(%esp)
  8017a9:	00 
  8017aa:	c7 44 24 08 1f 2b 81 	movl   $0x812b1f,0x8(%esp)
  8017b1:	00 
  8017b2:	c7 44 24 04 23 00 00 	movl   $0x23,0x4(%esp)
  8017b9:	00 
  8017ba:	c7 04 24 3c 2b 81 00 	movl   $0x812b3c,(%esp)
  8017c1:	e8 0e f2 ff ff       	call   8009d4 <_panic>

int
sys_env_set_pgfault_upcall(envid_t envid, void *upcall)
{
	return syscall(SYS_env_set_pgfault_upcall, 1, envid, (uint32_t) upcall, 0, 0, 0);
}
  8017c6:	8b 5d f4             	mov    -0xc(%ebp),%ebx
  8017c9:	8b 75 f8             	mov    -0x8(%ebp),%esi
  8017cc:	8b 7d fc             	mov    -0x4(%ebp),%edi
  8017cf:	89 ec                	mov    %ebp,%esp
  8017d1:	5d                   	pop    %ebp
  8017d2:	c3                   	ret    

008017d3 <sys_env_set_trapframe>:
	return syscall(SYS_env_set_status, 1, envid, status, 0, 0, 0);
}

int
sys_env_set_trapframe(envid_t envid, struct Trapframe *tf)
{
  8017d3:	55                   	push   %ebp
  8017d4:	89 e5                	mov    %esp,%ebp
  8017d6:	83 ec 38             	sub    $0x38,%esp
  8017d9:	89 5d f4             	mov    %ebx,-0xc(%ebp)
  8017dc:	89 75 f8             	mov    %esi,-0x8(%ebp)
  8017df:	89 7d fc             	mov    %edi,-0x4(%ebp)
	// 
	// The last clause tells the assembler that this can
	// potentially change the condition codes and arbitrary
	// memory locations.

	asm volatile("int %1\n"
  8017e2:	bb 00 00 00 00       	mov    $0x0,%ebx
  8017e7:	b8 09 00 00 00       	mov    $0x9,%eax
  8017ec:	8b 4d 0c             	mov    0xc(%ebp),%ecx
  8017ef:	8b 55 08             	mov    0x8(%ebp),%edx
  8017f2:	89 df                	mov    %ebx,%edi
  8017f4:	89 de                	mov    %ebx,%esi
  8017f6:	cd 30                	int    $0x30
		  "b" (a3),
		  "D" (a4),
		  "S" (a5)
		: "cc", "memory");
	
	if(check && ret > 0)
  8017f8:	85 c0                	test   %eax,%eax
  8017fa:	7e 28                	jle    801824 <sys_env_set_trapframe+0x51>
		panic("syscall %d returned %d (> 0)", num, ret);
  8017fc:	89 44 24 10          	mov    %eax,0x10(%esp)
  801800:	c7 44 24 0c 09 00 00 	movl   $0x9,0xc(%esp)
  801807:	00 
  801808:	c7 44 24 08 1f 2b 81 	movl   $0x812b1f,0x8(%esp)
  80180f:	00 
  801810:	c7 44 24 04 23 00 00 	movl   $0x23,0x4(%esp)
  801817:	00 
  801818:	c7 04 24 3c 2b 81 00 	movl   $0x812b3c,(%esp)
  80181f:	e8 b0 f1 ff ff       	call   8009d4 <_panic>

int
sys_env_set_trapframe(envid_t envid, struct Trapframe *tf)
{
	return syscall(SYS_env_set_trapframe, 1, envid, (uint32_t) tf, 0, 0, 0);
}
  801824:	8b 5d f4             	mov    -0xc(%ebp),%ebx
  801827:	8b 75 f8             	mov    -0x8(%ebp),%esi
  80182a:	8b 7d fc             	mov    -0x4(%ebp),%edi
  80182d:	89 ec                	mov    %ebp,%esp
  80182f:	5d                   	pop    %ebp
  801830:	c3                   	ret    

00801831 <sys_env_set_status>:

// sys_exofork is inlined in lib.h

int
sys_env_set_status(envid_t envid, int status)
{
  801831:	55                   	push   %ebp
  801832:	89 e5                	mov    %esp,%ebp
  801834:	83 ec 38             	sub    $0x38,%esp
  801837:	89 5d f4             	mov    %ebx,-0xc(%ebp)
  80183a:	89 75 f8             	mov    %esi,-0x8(%ebp)
  80183d:	89 7d fc             	mov    %edi,-0x4(%ebp)
	// 
	// The last clause tells the assembler that this can
	// potentially change the condition codes and arbitrary
	// memory locations.

	asm volatile("int %1\n"
  801840:	bb 00 00 00 00       	mov    $0x0,%ebx
  801845:	b8 08 00 00 00       	mov    $0x8,%eax
  80184a:	8b 4d 0c             	mov    0xc(%ebp),%ecx
  80184d:	8b 55 08             	mov    0x8(%ebp),%edx
  801850:	89 df                	mov    %ebx,%edi
  801852:	89 de                	mov    %ebx,%esi
  801854:	cd 30                	int    $0x30
		  "b" (a3),
		  "D" (a4),
		  "S" (a5)
		: "cc", "memory");
	
	if(check && ret > 0)
  801856:	85 c0                	test   %eax,%eax
  801858:	7e 28                	jle    801882 <sys_env_set_status+0x51>
		panic("syscall %d returned %d (> 0)", num, ret);
  80185a:	89 44 24 10          	mov    %eax,0x10(%esp)
  80185e:	c7 44 24 0c 08 00 00 	movl   $0x8,0xc(%esp)
  801865:	00 
  801866:	c7 44 24 08 1f 2b 81 	movl   $0x812b1f,0x8(%esp)
  80186d:	00 
  80186e:	c7 44 24 04 23 00 00 	movl   $0x23,0x4(%esp)
  801875:	00 
  801876:	c7 04 24 3c 2b 81 00 	movl   $0x812b3c,(%esp)
  80187d:	e8 52 f1 ff ff       	call   8009d4 <_panic>

int
sys_env_set_status(envid_t envid, int status)
{
	return syscall(SYS_env_set_status, 1, envid, status, 0, 0, 0);
}
  801882:	8b 5d f4             	mov    -0xc(%ebp),%ebx
  801885:	8b 75 f8             	mov    -0x8(%ebp),%esi
  801888:	8b 7d fc             	mov    -0x4(%ebp),%edi
  80188b:	89 ec                	mov    %ebp,%esp
  80188d:	5d                   	pop    %ebp
  80188e:	c3                   	ret    

0080188f <sys_page_unmap>:
	return syscall(SYS_page_map, 1, srcenv, (uint32_t) srcva, dstenv, (uint32_t) dstva, perm);
}

int
sys_page_unmap(envid_t envid, void *va)
{
  80188f:	55                   	push   %ebp
  801890:	89 e5                	mov    %esp,%ebp
  801892:	83 ec 38             	sub    $0x38,%esp
  801895:	89 5d f4             	mov    %ebx,-0xc(%ebp)
  801898:	89 75 f8             	mov    %esi,-0x8(%ebp)
  80189b:	89 7d fc             	mov    %edi,-0x4(%ebp)
	// 
	// The last clause tells the assembler that this can
	// potentially change the condition codes and arbitrary
	// memory locations.

	asm volatile("int %1\n"
  80189e:	bb 00 00 00 00       	mov    $0x0,%ebx
  8018a3:	b8 06 00 00 00       	mov    $0x6,%eax
  8018a8:	8b 4d 0c             	mov    0xc(%ebp),%ecx
  8018ab:	8b 55 08             	mov    0x8(%ebp),%edx
  8018ae:	89 df                	mov    %ebx,%edi
  8018b0:	89 de                	mov    %ebx,%esi
  8018b2:	cd 30                	int    $0x30
		  "b" (a3),
		  "D" (a4),
		  "S" (a5)
		: "cc", "memory");
	
	if(check && ret > 0)
  8018b4:	85 c0                	test   %eax,%eax
  8018b6:	7e 28                	jle    8018e0 <sys_page_unmap+0x51>
		panic("syscall %d returned %d (> 0)", num, ret);
  8018b8:	89 44 24 10          	mov    %eax,0x10(%esp)
  8018bc:	c7 44 24 0c 06 00 00 	movl   $0x6,0xc(%esp)
  8018c3:	00 
  8018c4:	c7 44 24 08 1f 2b 81 	movl   $0x812b1f,0x8(%esp)
  8018cb:	00 
  8018cc:	c7 44 24 04 23 00 00 	movl   $0x23,0x4(%esp)
  8018d3:	00 
  8018d4:	c7 04 24 3c 2b 81 00 	movl   $0x812b3c,(%esp)
  8018db:	e8 f4 f0 ff ff       	call   8009d4 <_panic>

int
sys_page_unmap(envid_t envid, void *va)
{
	return syscall(SYS_page_unmap, 1, envid, (uint32_t) va, 0, 0, 0);
}
  8018e0:	8b 5d f4             	mov    -0xc(%ebp),%ebx
  8018e3:	8b 75 f8             	mov    -0x8(%ebp),%esi
  8018e6:	8b 7d fc             	mov    -0x4(%ebp),%edi
  8018e9:	89 ec                	mov    %ebp,%esp
  8018eb:	5d                   	pop    %ebp
  8018ec:	c3                   	ret    

008018ed <sys_page_map>:
	return syscall(SYS_page_alloc, 1, envid, (uint32_t) va, perm, 0, 0);
}

int
sys_page_map(envid_t srcenv, void *srcva, envid_t dstenv, void *dstva, int perm)
{
  8018ed:	55                   	push   %ebp
  8018ee:	89 e5                	mov    %esp,%ebp
  8018f0:	83 ec 38             	sub    $0x38,%esp
  8018f3:	89 5d f4             	mov    %ebx,-0xc(%ebp)
  8018f6:	89 75 f8             	mov    %esi,-0x8(%ebp)
  8018f9:	89 7d fc             	mov    %edi,-0x4(%ebp)
	// 
	// The last clause tells the assembler that this can
	// potentially change the condition codes and arbitrary
	// memory locations.

	asm volatile("int %1\n"
  8018fc:	b8 05 00 00 00       	mov    $0x5,%eax
  801901:	8b 75 18             	mov    0x18(%ebp),%esi
  801904:	8b 7d 14             	mov    0x14(%ebp),%edi
  801907:	8b 5d 10             	mov    0x10(%ebp),%ebx
  80190a:	8b 4d 0c             	mov    0xc(%ebp),%ecx
  80190d:	8b 55 08             	mov    0x8(%ebp),%edx
  801910:	cd 30                	int    $0x30
		  "b" (a3),
		  "D" (a4),
		  "S" (a5)
		: "cc", "memory");
	
	if(check && ret > 0)
  801912:	85 c0                	test   %eax,%eax
  801914:	7e 28                	jle    80193e <sys_page_map+0x51>
		panic("syscall %d returned %d (> 0)", num, ret);
  801916:	89 44 24 10          	mov    %eax,0x10(%esp)
  80191a:	c7 44 24 0c 05 00 00 	movl   $0x5,0xc(%esp)
  801921:	00 
  801922:	c7 44 24 08 1f 2b 81 	movl   $0x812b1f,0x8(%esp)
  801929:	00 
  80192a:	c7 44 24 04 23 00 00 	movl   $0x23,0x4(%esp)
  801931:	00 
  801932:	c7 04 24 3c 2b 81 00 	movl   $0x812b3c,(%esp)
  801939:	e8 96 f0 ff ff       	call   8009d4 <_panic>

int
sys_page_map(envid_t srcenv, void *srcva, envid_t dstenv, void *dstva, int perm)
{
	return syscall(SYS_page_map, 1, srcenv, (uint32_t) srcva, dstenv, (uint32_t) dstva, perm);
}
  80193e:	8b 5d f4             	mov    -0xc(%ebp),%ebx
  801941:	8b 75 f8             	mov    -0x8(%ebp),%esi
  801944:	8b 7d fc             	mov    -0x4(%ebp),%edi
  801947:	89 ec                	mov    %ebp,%esp
  801949:	5d                   	pop    %ebp
  80194a:	c3                   	ret    

0080194b <sys_page_alloc>:
	syscall(SYS_yield, 0, 0, 0, 0, 0, 0);
}

int
sys_page_alloc(envid_t envid, void *va, int perm)
{
  80194b:	55                   	push   %ebp
  80194c:	89 e5                	mov    %esp,%ebp
  80194e:	83 ec 38             	sub    $0x38,%esp
  801951:	89 5d f4             	mov    %ebx,-0xc(%ebp)
  801954:	89 75 f8             	mov    %esi,-0x8(%ebp)
  801957:	89 7d fc             	mov    %edi,-0x4(%ebp)
	// 
	// The last clause tells the assembler that this can
	// potentially change the condition codes and arbitrary
	// memory locations.

	asm volatile("int %1\n"
  80195a:	be 00 00 00 00       	mov    $0x0,%esi
  80195f:	b8 04 00 00 00       	mov    $0x4,%eax
  801964:	8b 5d 10             	mov    0x10(%ebp),%ebx
  801967:	8b 4d 0c             	mov    0xc(%ebp),%ecx
  80196a:	8b 55 08             	mov    0x8(%ebp),%edx
  80196d:	89 f7                	mov    %esi,%edi
  80196f:	cd 30                	int    $0x30
		  "b" (a3),
		  "D" (a4),
		  "S" (a5)
		: "cc", "memory");
	
	if(check && ret > 0)
  801971:	85 c0                	test   %eax,%eax
  801973:	7e 28                	jle    80199d <sys_page_alloc+0x52>
		panic("syscall %d returned %d (> 0)", num, ret);
  801975:	89 44 24 10          	mov    %eax,0x10(%esp)
  801979:	c7 44 24 0c 04 00 00 	movl   $0x4,0xc(%esp)
  801980:	00 
  801981:	c7 44 24 08 1f 2b 81 	movl   $0x812b1f,0x8(%esp)
  801988:	00 
  801989:	c7 44 24 04 23 00 00 	movl   $0x23,0x4(%esp)
  801990:	00 
  801991:	c7 04 24 3c 2b 81 00 	movl   $0x812b3c,(%esp)
  801998:	e8 37 f0 ff ff       	call   8009d4 <_panic>

int
sys_page_alloc(envid_t envid, void *va, int perm)
{
	return syscall(SYS_page_alloc, 1, envid, (uint32_t) va, perm, 0, 0);
}
  80199d:	8b 5d f4             	mov    -0xc(%ebp),%ebx
  8019a0:	8b 75 f8             	mov    -0x8(%ebp),%esi
  8019a3:	8b 7d fc             	mov    -0x4(%ebp),%edi
  8019a6:	89 ec                	mov    %ebp,%esp
  8019a8:	5d                   	pop    %ebp
  8019a9:	c3                   	ret    

008019aa <sys_yield>:
	 return syscall(SYS_getenvid, 0, 0, 0, 0, 0, 0);
}

void
sys_yield(void)
{
  8019aa:	55                   	push   %ebp
  8019ab:	89 e5                	mov    %esp,%ebp
  8019ad:	83 ec 0c             	sub    $0xc,%esp
  8019b0:	89 1c 24             	mov    %ebx,(%esp)
  8019b3:	89 74 24 04          	mov    %esi,0x4(%esp)
  8019b7:	89 7c 24 08          	mov    %edi,0x8(%esp)
	// 
	// The last clause tells the assembler that this can
	// potentially change the condition codes and arbitrary
	// memory locations.

	asm volatile("int %1\n"
  8019bb:	ba 00 00 00 00       	mov    $0x0,%edx
  8019c0:	b8 0b 00 00 00       	mov    $0xb,%eax
  8019c5:	89 d1                	mov    %edx,%ecx
  8019c7:	89 d3                	mov    %edx,%ebx
  8019c9:	89 d7                	mov    %edx,%edi
  8019cb:	89 d6                	mov    %edx,%esi
  8019cd:	cd 30                	int    $0x30

void
sys_yield(void)
{
	syscall(SYS_yield, 0, 0, 0, 0, 0, 0);
}
  8019cf:	8b 1c 24             	mov    (%esp),%ebx
  8019d2:	8b 74 24 04          	mov    0x4(%esp),%esi
  8019d6:	8b 7c 24 08          	mov    0x8(%esp),%edi
  8019da:	89 ec                	mov    %ebp,%esp
  8019dc:	5d                   	pop    %ebp
  8019dd:	c3                   	ret    

008019de <sys_getenvid>:
	return syscall(SYS_env_destroy, 1, envid, 0, 0, 0, 0);
}

envid_t
sys_getenvid(void)
{
  8019de:	55                   	push   %ebp
  8019df:	89 e5                	mov    %esp,%ebp
  8019e1:	83 ec 0c             	sub    $0xc,%esp
  8019e4:	89 1c 24             	mov    %ebx,(%esp)
  8019e7:	89 74 24 04          	mov    %esi,0x4(%esp)
  8019eb:	89 7c 24 08          	mov    %edi,0x8(%esp)
	// 
	// The last clause tells the assembler that this can
	// potentially change the condition codes and arbitrary
	// memory locations.

	asm volatile("int %1\n"
  8019ef:	ba 00 00 00 00       	mov    $0x0,%edx
  8019f4:	b8 02 00 00 00       	mov    $0x2,%eax
  8019f9:	89 d1                	mov    %edx,%ecx
  8019fb:	89 d3                	mov    %edx,%ebx
  8019fd:	89 d7                	mov    %edx,%edi
  8019ff:	89 d6                	mov    %edx,%esi
  801a01:	cd 30                	int    $0x30

envid_t
sys_getenvid(void)
{
	 return syscall(SYS_getenvid, 0, 0, 0, 0, 0, 0);
}
  801a03:	8b 1c 24             	mov    (%esp),%ebx
  801a06:	8b 74 24 04          	mov    0x4(%esp),%esi
  801a0a:	8b 7c 24 08          	mov    0x8(%esp),%edi
  801a0e:	89 ec                	mov    %ebp,%esp
  801a10:	5d                   	pop    %ebp
  801a11:	c3                   	ret    

00801a12 <sys_env_destroy>:
	return syscall(SYS_cgetc, 0, 0, 0, 0, 0, 0);
}

int
sys_env_destroy(envid_t envid)
{
  801a12:	55                   	push   %ebp
  801a13:	89 e5                	mov    %esp,%ebp
  801a15:	83 ec 38             	sub    $0x38,%esp
  801a18:	89 5d f4             	mov    %ebx,-0xc(%ebp)
  801a1b:	89 75 f8             	mov    %esi,-0x8(%ebp)
  801a1e:	89 7d fc             	mov    %edi,-0x4(%ebp)
	// 
	// The last clause tells the assembler that this can
	// potentially change the condition codes and arbitrary
	// memory locations.

	asm volatile("int %1\n"
  801a21:	b9 00 00 00 00       	mov    $0x0,%ecx
  801a26:	b8 03 00 00 00       	mov    $0x3,%eax
  801a2b:	8b 55 08             	mov    0x8(%ebp),%edx
  801a2e:	89 cb                	mov    %ecx,%ebx
  801a30:	89 cf                	mov    %ecx,%edi
  801a32:	89 ce                	mov    %ecx,%esi
  801a34:	cd 30                	int    $0x30
		  "b" (a3),
		  "D" (a4),
		  "S" (a5)
		: "cc", "memory");
	
	if(check && ret > 0)
  801a36:	85 c0                	test   %eax,%eax
  801a38:	7e 28                	jle    801a62 <sys_env_destroy+0x50>
		panic("syscall %d returned %d (> 0)", num, ret);
  801a3a:	89 44 24 10          	mov    %eax,0x10(%esp)
  801a3e:	c7 44 24 0c 03 00 00 	movl   $0x3,0xc(%esp)
  801a45:	00 
  801a46:	c7 44 24 08 1f 2b 81 	movl   $0x812b1f,0x8(%esp)
  801a4d:	00 
  801a4e:	c7 44 24 04 23 00 00 	movl   $0x23,0x4(%esp)
  801a55:	00 
  801a56:	c7 04 24 3c 2b 81 00 	movl   $0x812b3c,(%esp)
  801a5d:	e8 72 ef ff ff       	call   8009d4 <_panic>

int
sys_env_destroy(envid_t envid)
{
	return syscall(SYS_env_destroy, 1, envid, 0, 0, 0, 0);
}
  801a62:	8b 5d f4             	mov    -0xc(%ebp),%ebx
  801a65:	8b 75 f8             	mov    -0x8(%ebp),%esi
  801a68:	8b 7d fc             	mov    -0x4(%ebp),%edi
  801a6b:	89 ec                	mov    %ebp,%esp
  801a6d:	5d                   	pop    %ebp
  801a6e:	c3                   	ret    
	...

00801a70 <sfork>:
}

// Challenge!
int
sfork(void)
{
  801a70:	55                   	push   %ebp
  801a71:	89 e5                	mov    %esp,%ebp
  801a73:	83 ec 18             	sub    $0x18,%esp
	panic("sfork not implemented");
  801a76:	c7 44 24 08 4a 2b 81 	movl   $0x812b4a,0x8(%esp)
  801a7d:	00 
  801a7e:	c7 44 24 04 f2 00 00 	movl   $0xf2,0x4(%esp)
  801a85:	00 
  801a86:	c7 04 24 60 2b 81 00 	movl   $0x812b60,(%esp)
  801a8d:	e8 42 ef ff ff       	call   8009d4 <_panic>

00801a92 <pgfault>:
// Custom page fault handler - if faulting page is copy-on-write,
// map in our own private writable copy.
//
static void
pgfault(struct UTrapframe *utf)
{
  801a92:	55                   	push   %ebp
  801a93:	89 e5                	mov    %esp,%ebp
  801a95:	53                   	push   %ebx
  801a96:	83 ec 24             	sub    $0x24,%esp
  801a99:	8b 45 08             	mov    0x8(%ebp),%eax
	void *addr = (void *) utf->utf_fault_va;
  801a9c:	8b 18                	mov    (%eax),%ebx
	uint32_t err = utf->utf_err;
  801a9e:	f6 40 04 02          	testb  $0x2,0x4(%eax)
  801aa2:	75 1c                	jne    801ac0 <pgfault+0x2e>
	// LAB 4: Your code here.
	if ((err & FEC_WR) != FEC_WR)
	{
		if (debug)
			cprintf("Error caught = %x\n", err);
		panic ("user panic in lib/fork.c - pgfault(): faulting access is not write\n");
  801aa4:	c7 44 24 08 6c 2b 81 	movl   $0x812b6c,0x8(%esp)
  801aab:	00 
  801aac:	c7 44 24 04 23 00 00 	movl   $0x23,0x4(%esp)
  801ab3:	00 
  801ab4:	c7 04 24 60 2b 81 00 	movl   $0x812b60,(%esp)
  801abb:	e8 14 ef ff ff       	call   8009d4 <_panic>
	}
	pte = vpt[VPN(addr)];
  801ac0:	89 d8                	mov    %ebx,%eax
  801ac2:	c1 e8 0c             	shr    $0xc,%eax
  801ac5:	8b 04 85 00 00 40 ef 	mov    -0x10c00000(,%eax,4),%eax
	if ((pte & PTE_COW) != PTE_COW)
  801acc:	f6 c4 08             	test   $0x8,%ah
  801acf:	75 1c                	jne    801aed <pgfault+0x5b>
		panic ("user panic in lib/fork.c - pgfault(): faulting access is not to a COW page\n");
  801ad1:	c7 44 24 08 b0 2b 81 	movl   $0x812bb0,0x8(%esp)
  801ad8:	00 
  801ad9:	c7 44 24 04 27 00 00 	movl   $0x27,0x4(%esp)
  801ae0:	00 
  801ae1:	c7 04 24 60 2b 81 00 	movl   $0x812b60,(%esp)
  801ae8:	e8 e7 ee ff ff       	call   8009d4 <_panic>
	// Hint:
	//   You should make three system calls.
	//   No need to explicitly delete the old page's mapping.

	// LAB 4: Your code here.
	if ((r = sys_page_alloc(0, (void*)PFTEMP, PTE_P | PTE_U | PTE_W)) < 0)
  801aed:	c7 44 24 08 07 00 00 	movl   $0x7,0x8(%esp)
  801af4:	00 
  801af5:	c7 44 24 04 00 f0 7f 	movl   $0x7ff000,0x4(%esp)
  801afc:	00 
  801afd:	c7 04 24 00 00 00 00 	movl   $0x0,(%esp)
  801b04:	e8 42 fe ff ff       	call   80194b <sys_page_alloc>
  801b09:	85 c0                	test   %eax,%eax
  801b0b:	79 20                	jns    801b2d <pgfault+0x9b>
		panic ("user panic in lib/fork.c - pgfault(): sys_page_alloc: %e", r);
  801b0d:	89 44 24 0c          	mov    %eax,0xc(%esp)
  801b11:	c7 44 24 08 fc 2b 81 	movl   $0x812bfc,0x8(%esp)
  801b18:	00 
  801b19:	c7 44 24 04 32 00 00 	movl   $0x32,0x4(%esp)
  801b20:	00 
  801b21:	c7 04 24 60 2b 81 00 	movl   $0x812b60,(%esp)
  801b28:	e8 a7 ee ff ff       	call   8009d4 <_panic>
	
	memmove((void*)PFTEMP, (void*)ROUNDDOWN(addr,PGSIZE), PGSIZE);
  801b2d:	81 e3 00 f0 ff ff    	and    $0xfffff000,%ebx
  801b33:	c7 44 24 08 00 10 00 	movl   $0x1000,0x8(%esp)
  801b3a:	00 
  801b3b:	89 5c 24 04          	mov    %ebx,0x4(%esp)
  801b3f:	c7 04 24 00 f0 7f 00 	movl   $0x7ff000,(%esp)
  801b46:	e8 ca f7 ff ff       	call   801315 <memmove>
		
	if ((r = sys_page_map(0, (void*)PFTEMP, 0, (void*)ROUNDDOWN(addr,PGSIZE), PTE_P | PTE_U | PTE_W)) < 0)	
  801b4b:	c7 44 24 10 07 00 00 	movl   $0x7,0x10(%esp)
  801b52:	00 
  801b53:	89 5c 24 0c          	mov    %ebx,0xc(%esp)
  801b57:	c7 44 24 08 00 00 00 	movl   $0x0,0x8(%esp)
  801b5e:	00 
  801b5f:	c7 44 24 04 00 f0 7f 	movl   $0x7ff000,0x4(%esp)
  801b66:	00 
  801b67:	c7 04 24 00 00 00 00 	movl   $0x0,(%esp)
  801b6e:	e8 7a fd ff ff       	call   8018ed <sys_page_map>
  801b73:	85 c0                	test   %eax,%eax
  801b75:	79 20                	jns    801b97 <pgfault+0x105>
		panic ("user panic in lib/fork.c - pgfault(): sys_page_map: %e", r);
  801b77:	89 44 24 0c          	mov    %eax,0xc(%esp)
  801b7b:	c7 44 24 08 38 2c 81 	movl   $0x812c38,0x8(%esp)
  801b82:	00 
  801b83:	c7 44 24 04 37 00 00 	movl   $0x37,0x4(%esp)
  801b8a:	00 
  801b8b:	c7 04 24 60 2b 81 00 	movl   $0x812b60,(%esp)
  801b92:	e8 3d ee ff ff       	call   8009d4 <_panic>
	if ((r = sys_page_unmap(0, (void*)PFTEMP)) < 0)
  801b97:	c7 44 24 04 00 f0 7f 	movl   $0x7ff000,0x4(%esp)
  801b9e:	00 
  801b9f:	c7 04 24 00 00 00 00 	movl   $0x0,(%esp)
  801ba6:	e8 e4 fc ff ff       	call   80188f <sys_page_unmap>
  801bab:	85 c0                	test   %eax,%eax
  801bad:	79 20                	jns    801bcf <pgfault+0x13d>
		panic ("user panic in lib/fork.c - pgfault(): sys_page_unmap: %e", r);
  801baf:	89 44 24 0c          	mov    %eax,0xc(%esp)
  801bb3:	c7 44 24 08 70 2c 81 	movl   $0x812c70,0x8(%esp)
  801bba:	00 
  801bbb:	c7 44 24 04 39 00 00 	movl   $0x39,0x4(%esp)
  801bc2:	00 
  801bc3:	c7 04 24 60 2b 81 00 	movl   $0x812b60,(%esp)
  801bca:	e8 05 ee ff ff       	call   8009d4 <_panic>
	// panic("pgfault not implemented");
}
  801bcf:	83 c4 24             	add    $0x24,%esp
  801bd2:	5b                   	pop    %ebx
  801bd3:	5d                   	pop    %ebp
  801bd4:	c3                   	ret    

00801bd5 <fork>:
//   Neither user exception stack should ever be marked copy-on-write,
//   so you must allocate a new page for the child's user exception stack.
//
envid_t
fork(void)
{
  801bd5:	55                   	push   %ebp
  801bd6:	89 e5                	mov    %esp,%ebp
  801bd8:	57                   	push   %edi
  801bd9:	56                   	push   %esi
  801bda:	53                   	push   %ebx
  801bdb:	83 ec 3c             	sub    $0x3c,%esp
	int r;
	uint32_t pde_x, pte_x, vpn;	// page directory index, page table index and page number
	

	// Set up our page fault handler appropriately.
	set_pgfault_handler(pgfault);
  801bde:	c7 04 24 92 1a 80 00 	movl   $0x801a92,(%esp)
  801be5:	e8 c2 18 00 00       	call   8034ac <set_pgfault_handler>
static __inline envid_t sys_exofork(void) __attribute__((always_inline));
static __inline envid_t
sys_exofork(void)
{
	envid_t ret;
	__asm __volatile("int %2"
  801bea:	ba 07 00 00 00       	mov    $0x7,%edx
  801bef:	89 d0                	mov    %edx,%eax
  801bf1:	cd 30                	int    $0x30
  801bf3:	89 45 e0             	mov    %eax,-0x20(%ebp)
		cprintf("\n After set_pgfaulthandler()\n");
	// Create a child.
	child_envid = sys_exofork();
	if (debug)
		cprintf("\n After exofork()\n");
	if (child_envid < 0)
  801bf6:	85 c0                	test   %eax,%eax
  801bf8:	0f 88 21 02 00 00    	js     801e1f <fork+0x24a>
	if (child_envid == 0)
	{
		if (debug)
			cprintf("\n After child_envid == 0\n");
		env = &envs[ENVX(sys_getenvid())];
		return 0;
  801bfe:	c7 45 dc 00 00 00 00 	movl   $0x0,-0x24(%ebp)
		return child_envid;
	if (debug)
		cprintf("\n After child_envid >= 0\n");
		// panic(" panic in lib/fork.c - fork():sys_exofork: %e", child_env);
	// fix "env" in the child process
	if (child_envid == 0)
  801c05:	85 c0                	test   %eax,%eax
  801c07:	75 1c                	jne    801c25 <fork+0x50>
	{
		if (debug)
			cprintf("\n After child_envid == 0\n");
		env = &envs[ENVX(sys_getenvid())];
  801c09:	e8 d0 fd ff ff       	call   8019de <sys_getenvid>
  801c0e:	25 ff 03 00 00       	and    $0x3ff,%eax
  801c13:	6b c0 7c             	imul   $0x7c,%eax,%eax
  801c16:	05 00 00 c0 ee       	add    $0xeec00000,%eax
  801c1b:	a3 f4 f5 b3 00       	mov    %eax,0xb3f5f4
		return 0;
  801c20:	e9 fa 01 00 00       	jmp    801e1f <fork+0x24a>
	// Map the address space except the user exception stack
	if (debug)
		cprintf("\n After child_envid > 0\n");
	for (pde_x = VPD(0); pde_x < VPD(UTOP); pde_x++)
	{
		if ((vpd[pde_x] & PTE_P) == PTE_P)
  801c25:	8b 55 dc             	mov    -0x24(%ebp),%edx
  801c28:	8b 04 95 00 d0 7b ef 	mov    -0x10843000(,%edx,4),%eax
  801c2f:	a8 01                	test   $0x1,%al
  801c31:	0f 84 16 01 00 00    	je     801d4d <fork+0x178>
		{
			for (pte_x = 0; pte_x < NPTENTRIES; pte_x++)
			{
				vpn = (pde_x << (PDXSHIFT - PTXSHIFT)) + pte_x;		//removed hardcoding
  801c37:	89 d3                	mov    %edx,%ebx
  801c39:	c1 e3 0a             	shl    $0xa,%ebx
  801c3c:	89 d7                	mov    %edx,%edi
  801c3e:	c1 e7 16             	shl    $0x16,%edi
  801c41:	be 00 00 00 00       	mov    $0x0,%esi
				if(((vpt[vpn] & PTE_P) == PTE_P) && (vpn < VPN(UXSTACKTOP - PGSIZE)))
  801c46:	8b 04 9d 00 00 40 ef 	mov    -0x10c00000(,%ebx,4),%eax
  801c4d:	a8 01                	test   $0x1,%al
  801c4f:	0f 84 e0 00 00 00    	je     801d35 <fork+0x160>
  801c55:	81 fb fe eb 0e 00    	cmp    $0xeebfe,%ebx
  801c5b:	0f 87 d4 00 00 00    	ja     801d35 <fork+0x160>
	
	// LAB 4: Your code here.
	if (debug)
		cprintf("\n duppage: 1\n");	

	pte_t pte = vpt[pn];
  801c61:	8b 14 9d 00 00 40 ef 	mov    -0x10c00000(,%ebx,4),%edx
	int perm = pte & PTE_USER;
  801c68:	89 d0                	mov    %edx,%eax
  801c6a:	25 07 0e 00 00       	and    $0xe07,%eax
	void *va = (void*) (pn*PGSIZE);	
	if (debug)
		cprintf("\n duppage: 2\n");	
	
	if ((perm & PTE_P) != PTE_P)
  801c6f:	f6 c2 01             	test   $0x1,%dl
  801c72:	75 1c                	jne    801c90 <fork+0xbb>
		panic ("user panic: lib\fork.c: duppage(): page to be duplicated is not PTE_P\n");
  801c74:	c7 44 24 08 ac 2c 81 	movl   $0x812cac,0x8(%esp)
  801c7b:	00 
  801c7c:	c7 44 24 04 58 00 00 	movl   $0x58,0x4(%esp)
  801c83:	00 
  801c84:	c7 04 24 60 2b 81 00 	movl   $0x812b60,(%esp)
  801c8b:	e8 44 ed ff ff       	call   8009d4 <_panic>
	if ((perm & PTE_U) != PTE_U)
  801c90:	a8 04                	test   $0x4,%al
  801c92:	75 1c                	jne    801cb0 <fork+0xdb>
		panic ("user panic: lib\fork.c: duppage(): page to be duplicated is not PTE_U\n");
  801c94:	c7 44 24 08 f4 2c 81 	movl   $0x812cf4,0x8(%esp)
  801c9b:	00 
  801c9c:	c7 44 24 04 5a 00 00 	movl   $0x5a,0x4(%esp)
  801ca3:	00 
  801ca4:	c7 04 24 60 2b 81 00 	movl   $0x812b60,(%esp)
  801cab:	e8 24 ed ff ff       	call   8009d4 <_panic>
  801cb0:	89 7d e4             	mov    %edi,-0x1c(%ebp)
	if (debug)
		cprintf("\n duppage: 3\n");	

	// LAB 7: Include PTE_SHARE convention
	if ( !(perm & PTE_SHARE) && (((perm & PTE_W) == PTE_W) || ((perm & PTE_COW) == PTE_COW)))
  801cb3:	f6 c4 04             	test   $0x4,%ah
  801cb6:	75 5b                	jne    801d13 <fork+0x13e>
  801cb8:	a9 02 08 00 00       	test   $0x802,%eax
  801cbd:	74 54                	je     801d13 <fork+0x13e>
	{
		if (debug)
			cprintf("\n duppage: 4\n");	
		// perm = PTE_P | PTE_U | PTE_COW;	// buggy permissions, removed in LAB 7
		perm &= ~PTE_W;				// remove write from perm
  801cbf:	83 e0 fd             	and    $0xfffffffd,%eax
		perm |= PTE_COW;			// add copy-on-write
  801cc2:	80 cc 08             	or     $0x8,%ah
  801cc5:	89 45 d8             	mov    %eax,-0x28(%ebp)
		if (debug)
			cprintf("\n duppage: 10\n");	
		if ((r = sys_page_map(0, va, envid, va, perm)) < 0)
  801cc8:	89 44 24 10          	mov    %eax,0x10(%esp)
  801ccc:	89 7c 24 0c          	mov    %edi,0xc(%esp)
  801cd0:	8b 55 e0             	mov    -0x20(%ebp),%edx
  801cd3:	89 54 24 08          	mov    %edx,0x8(%esp)
  801cd7:	89 7c 24 04          	mov    %edi,0x4(%esp)
  801cdb:	c7 04 24 00 00 00 00 	movl   $0x0,(%esp)
  801ce2:	e8 06 fc ff ff       	call   8018ed <sys_page_map>
  801ce7:	85 c0                	test   %eax,%eax
  801ce9:	78 4a                	js     801d35 <fork+0x160>
			return r;
		if (debug)
			cprintf("\n duppage: 11\n");	
		if ((r = sys_page_map(0, va, 0, va, perm)) < 0)
  801ceb:	8b 45 d8             	mov    -0x28(%ebp),%eax
  801cee:	89 44 24 10          	mov    %eax,0x10(%esp)
  801cf2:	8b 55 e4             	mov    -0x1c(%ebp),%edx
  801cf5:	89 54 24 0c          	mov    %edx,0xc(%esp)
  801cf9:	c7 44 24 08 00 00 00 	movl   $0x0,0x8(%esp)
  801d00:	00 
  801d01:	89 54 24 04          	mov    %edx,0x4(%esp)
  801d05:	c7 04 24 00 00 00 00 	movl   $0x0,(%esp)
  801d0c:	e8 dc fb ff ff       	call   8018ed <sys_page_map>
  801d11:	eb 22                	jmp    801d35 <fork+0x160>
	// LAB 7: Include PTE_SHARE convention
	else
	{
		if (debug)
			cprintf("\n duppage: 6\n");	
		if ((r = sys_page_map(0, va, envid, va, perm)) < 0)
  801d13:	89 44 24 10          	mov    %eax,0x10(%esp)
  801d17:	8b 45 e4             	mov    -0x1c(%ebp),%eax
  801d1a:	89 44 24 0c          	mov    %eax,0xc(%esp)
  801d1e:	8b 55 e0             	mov    -0x20(%ebp),%edx
  801d21:	89 54 24 08          	mov    %edx,0x8(%esp)
  801d25:	89 44 24 04          	mov    %eax,0x4(%esp)
  801d29:	c7 04 24 00 00 00 00 	movl   $0x0,(%esp)
  801d30:	e8 b8 fb ff ff       	call   8018ed <sys_page_map>
		cprintf("\n After child_envid > 0\n");
	for (pde_x = VPD(0); pde_x < VPD(UTOP); pde_x++)
	{
		if ((vpd[pde_x] & PTE_P) == PTE_P)
		{
			for (pte_x = 0; pte_x < NPTENTRIES; pte_x++)
  801d35:	83 c6 01             	add    $0x1,%esi
  801d38:	83 c3 01             	add    $0x1,%ebx
  801d3b:	81 c7 00 10 00 00    	add    $0x1000,%edi
  801d41:	81 fe 00 04 00 00    	cmp    $0x400,%esi
  801d47:	0f 85 f9 fe ff ff    	jne    801c46 <fork+0x71>
	}
	// reached here... we're the parent process
	// Map the address space except the user exception stack
	if (debug)
		cprintf("\n After child_envid > 0\n");
	for (pde_x = VPD(0); pde_x < VPD(UTOP); pde_x++)
  801d4d:	83 45 dc 01          	addl   $0x1,-0x24(%ebp)
  801d51:	81 7d dc bb 03 00 00 	cmpl   $0x3bb,-0x24(%ebp)
  801d58:	0f 85 c7 fe ff ff    	jne    801c25 <fork+0x50>
	}	
	if (debug)
		cprintf("\n After duppaging()\n");
	// Allocate and copy the use exception stack for the child environment
	// Allocate a page for the stack in the child
	if ((r = sys_page_alloc(child_envid, (void*)(UXSTACKTOP - PGSIZE), PTE_P | PTE_U | PTE_W)) < 0)
  801d5e:	c7 44 24 08 07 00 00 	movl   $0x7,0x8(%esp)
  801d65:	00 
  801d66:	c7 44 24 04 00 f0 bf 	movl   $0xeebff000,0x4(%esp)
  801d6d:	ee 
  801d6e:	8b 45 e0             	mov    -0x20(%ebp),%eax
  801d71:	89 04 24             	mov    %eax,(%esp)
  801d74:	e8 d2 fb ff ff       	call   80194b <sys_page_alloc>
  801d79:	85 c0                	test   %eax,%eax
  801d7b:	79 08                	jns    801d85 <fork+0x1b0>
  801d7d:	89 45 e0             	mov    %eax,-0x20(%ebp)
  801d80:	e9 9a 00 00 00       	jmp    801e1f <fork+0x24a>
		return r;
	if (debug)
		cprintf("\n After set_pgfaulthandler()\n");
	// Map this page to a free virtual address space in parent
	if ((r = sys_page_map(child_envid, (void*)(UXSTACKTOP - PGSIZE), 0, (void*)UTEMP, PTE_P | PTE_U | PTE_W)) < 0)
  801d85:	c7 44 24 10 07 00 00 	movl   $0x7,0x10(%esp)
  801d8c:	00 
  801d8d:	c7 44 24 0c 00 00 40 	movl   $0x400000,0xc(%esp)
  801d94:	00 
  801d95:	c7 44 24 08 00 00 00 	movl   $0x0,0x8(%esp)
  801d9c:	00 
  801d9d:	c7 44 24 04 00 f0 bf 	movl   $0xeebff000,0x4(%esp)
  801da4:	ee 
  801da5:	8b 55 e0             	mov    -0x20(%ebp),%edx
  801da8:	89 14 24             	mov    %edx,(%esp)
  801dab:	e8 3d fb ff ff       	call   8018ed <sys_page_map>
  801db0:	85 c0                	test   %eax,%eax
  801db2:	79 05                	jns    801db9 <fork+0x1e4>
  801db4:	89 45 e0             	mov    %eax,-0x20(%ebp)
  801db7:	eb 66                	jmp    801e1f <fork+0x24a>
		return r;
	if (debug)
		cprintf("\n After sys_page_map()\n");
	// Copy the parent exception stack to the above, i.e. page from child mapped to parent's address space
	memmove((void*)UTEMP, (void*)(UXSTACKTOP - PGSIZE), PGSIZE);
  801db9:	c7 44 24 08 00 10 00 	movl   $0x1000,0x8(%esp)
  801dc0:	00 
  801dc1:	c7 44 24 04 00 f0 bf 	movl   $0xeebff000,0x4(%esp)
  801dc8:	ee 
  801dc9:	c7 04 24 00 00 40 00 	movl   $0x400000,(%esp)
  801dd0:	e8 40 f5 ff ff       	call   801315 <memmove>
	if (debug)
		cprintf("\n After memmove()\n");
	// Unmap this page from the parent
	sys_page_unmap(0, (void*)UTEMP);
  801dd5:	c7 44 24 04 00 00 40 	movl   $0x400000,0x4(%esp)
  801ddc:	00 
  801ddd:	c7 04 24 00 00 00 00 	movl   $0x0,(%esp)
  801de4:	e8 a6 fa ff ff       	call   80188f <sys_page_unmap>
	if (debug)
		cprintf("\n After sys_page_unmap()\n");

	// Set up the page fault handler
	if ((r = sys_env_set_pgfault_upcall(child_envid, _pgfault_upcall)) < 0)
  801de9:	c7 44 24 04 40 35 80 	movl   $0x803540,0x4(%esp)
  801df0:	00 
  801df1:	8b 45 e0             	mov    -0x20(%ebp),%eax
  801df4:	89 04 24             	mov    %eax,(%esp)
  801df7:	e8 79 f9 ff ff       	call   801775 <sys_env_set_pgfault_upcall>
  801dfc:	85 c0                	test   %eax,%eax
  801dfe:	79 05                	jns    801e05 <fork+0x230>
  801e00:	89 45 e0             	mov    %eax,-0x20(%ebp)
  801e03:	eb 1a                	jmp    801e1f <fork+0x24a>
		// panic(" panic in lib/fork.c - fork():sys_env_set_pgfault_upcall: %e", child_env);
	if (debug)
		cprintf("\n After set_upcall()\n");

	// Mark the child runnable
	if ((r = sys_env_set_status(child_envid, ENV_RUNNABLE)) < 0)
  801e05:	c7 44 24 04 01 00 00 	movl   $0x1,0x4(%esp)
  801e0c:	00 
  801e0d:	8b 55 e0             	mov    -0x20(%ebp),%edx
  801e10:	89 14 24             	mov    %edx,(%esp)
  801e13:	e8 19 fa ff ff       	call   801831 <sys_env_set_status>
  801e18:	85 c0                	test   %eax,%eax
  801e1a:	79 03                	jns    801e1f <fork+0x24a>
  801e1c:	89 45 e0             	mov    %eax,-0x20(%ebp)
	if (debug)
		cprintf("\n After set_status()\n");
	
	return child_envid;
	
}
  801e1f:	8b 45 e0             	mov    -0x20(%ebp),%eax
  801e22:	83 c4 3c             	add    $0x3c,%esp
  801e25:	5b                   	pop    %ebx
  801e26:	5e                   	pop    %esi
  801e27:	5f                   	pop    %edi
  801e28:	5d                   	pop    %ebp
  801e29:	c3                   	ret    
  801e2a:	00 00                	add    %al,(%eax)
  801e2c:	00 00                	add    %al,(%eax)
	...

00801e30 <ipc_send>:
//   Use sys_yield() to be CPU-friendly.
//   If 'pg' is null, pass sys_ipc_recv a value that it will understand
//   as meaning "no page".  (Zero is not the right value.)
void
ipc_send(envid_t to_env, uint32_t val, void *pg, int perm)
{
  801e30:	55                   	push   %ebp
  801e31:	89 e5                	mov    %esp,%ebp
  801e33:	57                   	push   %edi
  801e34:	56                   	push   %esi
  801e35:	53                   	push   %ebx
  801e36:	83 ec 1c             	sub    $0x1c,%esp
  801e39:	8b 7d 0c             	mov    0xc(%ebp),%edi
  801e3c:	8b 5d 10             	mov    0x10(%ebp),%ebx
  801e3f:	8b 75 14             	mov    0x14(%ebp),%esi
	// LAB 4: Your code here.
	int r;
	if (pg == NULL)
  801e42:	85 db                	test   %ebx,%ebx
  801e44:	75 2d                	jne    801e73 <ipc_send+0x43>
  801e46:	bb 00 00 c0 ee       	mov    $0xeec00000,%ebx
  801e4b:	eb 26                	jmp    801e73 <ipc_send+0x43>
		pg = (void*)UTOP;
	while ((r = sys_ipc_try_send(to_env, val, pg, perm)) < 0)
	{
		if(r != -E_IPC_NOT_RECV)
  801e4d:	83 f8 f9             	cmp    $0xfffffff9,%eax
  801e50:	74 1c                	je     801e6e <ipc_send+0x3e>
			panic("Panic in lib ipc.c : ipc_send() \n");
  801e52:	c7 44 24 08 3c 2d 81 	movl   $0x812d3c,0x8(%esp)
  801e59:	00 
  801e5a:	c7 44 24 04 44 00 00 	movl   $0x44,0x4(%esp)
  801e61:	00 
  801e62:	c7 04 24 5e 2d 81 00 	movl   $0x812d5e,(%esp)
  801e69:	e8 66 eb ff ff       	call   8009d4 <_panic>
		sys_yield();
  801e6e:	e8 37 fb ff ff       	call   8019aa <sys_yield>
{
	// LAB 4: Your code here.
	int r;
	if (pg == NULL)
		pg = (void*)UTOP;
	while ((r = sys_ipc_try_send(to_env, val, pg, perm)) < 0)
  801e73:	89 74 24 0c          	mov    %esi,0xc(%esp)
  801e77:	89 5c 24 08          	mov    %ebx,0x8(%esp)
  801e7b:	89 7c 24 04          	mov    %edi,0x4(%esp)
  801e7f:	8b 45 08             	mov    0x8(%ebp),%eax
  801e82:	89 04 24             	mov    %eax,(%esp)
  801e85:	e8 b3 f8 ff ff       	call   80173d <sys_ipc_try_send>
  801e8a:	85 c0                	test   %eax,%eax
  801e8c:	78 bf                	js     801e4d <ipc_send+0x1d>
		if(r != -E_IPC_NOT_RECV)
			panic("Panic in lib ipc.c : ipc_send() \n");
		sys_yield();
	}
	//panic("ipc_send not implemented");
}
  801e8e:	83 c4 1c             	add    $0x1c,%esp
  801e91:	5b                   	pop    %ebx
  801e92:	5e                   	pop    %esi
  801e93:	5f                   	pop    %edi
  801e94:	5d                   	pop    %ebp
  801e95:	c3                   	ret    

00801e96 <ipc_recv>:
//   If 'pg' is null, pass sys_ipc_recv a value that it will understand
//   as meaning "no page".  (Zero is not the right value, since that's
//   a perfectly valid place to map a page.)
int32_t
ipc_recv(envid_t *from_env_store, void *pg, int *perm_store)
{
  801e96:	55                   	push   %ebp
  801e97:	89 e5                	mov    %esp,%ebp
  801e99:	56                   	push   %esi
  801e9a:	53                   	push   %ebx
  801e9b:	83 ec 10             	sub    $0x10,%esp
  801e9e:	8b 5d 08             	mov    0x8(%ebp),%ebx
  801ea1:	8b 45 0c             	mov    0xc(%ebp),%eax
  801ea4:	8b 75 10             	mov    0x10(%ebp),%esi
	// LAB 4: Your code here.
	int r;

	if (pg == NULL)
  801ea7:	85 c0                	test   %eax,%eax
  801ea9:	75 05                	jne    801eb0 <ipc_recv+0x1a>
  801eab:	b8 00 00 c0 ee       	mov    $0xeec00000,%eax
		pg = (void*)UTOP;
	if ((r = sys_ipc_recv(pg)) < 0)
  801eb0:	89 04 24             	mov    %eax,(%esp)
  801eb3:	e8 28 f8 ff ff       	call   8016e0 <sys_ipc_recv>
  801eb8:	85 c0                	test   %eax,%eax
  801eba:	79 16                	jns    801ed2 <ipc_recv+0x3c>
	{
		if (from_env_store != NULL)
  801ebc:	85 db                	test   %ebx,%ebx
  801ebe:	74 06                	je     801ec6 <ipc_recv+0x30>
			*from_env_store = 0;
  801ec0:	c7 03 00 00 00 00    	movl   $0x0,(%ebx)
		if(perm_store != NULL)
  801ec6:	85 f6                	test   %esi,%esi
  801ec8:	74 2c                	je     801ef6 <ipc_recv+0x60>
			*perm_store = 0;
  801eca:	c7 06 00 00 00 00    	movl   $0x0,(%esi)
  801ed0:	eb 24                	jmp    801ef6 <ipc_recv+0x60>
		return r;
	}
	else
	{	
		if (from_env_store != NULL)
  801ed2:	85 db                	test   %ebx,%ebx
  801ed4:	74 0a                	je     801ee0 <ipc_recv+0x4a>
			*from_env_store = env->env_ipc_from;
  801ed6:	a1 f4 f5 b3 00       	mov    0xb3f5f4,%eax
  801edb:	8b 40 74             	mov    0x74(%eax),%eax
  801ede:	89 03                	mov    %eax,(%ebx)
		if(perm_store != NULL)
  801ee0:	85 f6                	test   %esi,%esi
  801ee2:	74 0a                	je     801eee <ipc_recv+0x58>
			*perm_store = env->env_ipc_perm;
  801ee4:	a1 f4 f5 b3 00       	mov    0xb3f5f4,%eax
  801ee9:	8b 40 78             	mov    0x78(%eax),%eax
  801eec:	89 06                	mov    %eax,(%esi)
		return env->env_ipc_value;
  801eee:	a1 f4 f5 b3 00       	mov    0xb3f5f4,%eax
  801ef3:	8b 40 70             	mov    0x70(%eax),%eax
	}		
	//panic("ipc_recv not implemented");
	//return 0;
}
  801ef6:	83 c4 10             	add    $0x10,%esp
  801ef9:	5b                   	pop    %ebx
  801efa:	5e                   	pop    %esi
  801efb:	5d                   	pop    %ebp
  801efc:	c3                   	ret    
  801efd:	00 00                	add    %al,(%eax)
	...

00801f00 <fd2num>:
// File descriptor manipulators
// --------------------------------------------------------------

int
fd2num(struct Fd *fd)
{
  801f00:	55                   	push   %ebp
  801f01:	89 e5                	mov    %esp,%ebp
  801f03:	8b 45 08             	mov    0x8(%ebp),%eax
  801f06:	05 00 00 00 30       	add    $0x30000000,%eax
  801f0b:	c1 e8 0c             	shr    $0xc,%eax
	return ((uintptr_t) fd - FDTABLE) / PGSIZE;
}
  801f0e:	5d                   	pop    %ebp
  801f0f:	c3                   	ret    

00801f10 <fd2data>:

char*
fd2data(struct Fd *fd)
{
  801f10:	55                   	push   %ebp
  801f11:	89 e5                	mov    %esp,%ebp
  801f13:	83 ec 04             	sub    $0x4,%esp
	return INDEX2DATA(fd2num(fd));
  801f16:	8b 45 08             	mov    0x8(%ebp),%eax
  801f19:	89 04 24             	mov    %eax,(%esp)
  801f1c:	e8 df ff ff ff       	call   801f00 <fd2num>
  801f21:	05 20 00 0d 00       	add    $0xd0020,%eax
  801f26:	c1 e0 0c             	shl    $0xc,%eax
}
  801f29:	c9                   	leave  
  801f2a:	c3                   	ret    

00801f2b <fd_alloc>:
// Returns 0 on success, < 0 on error.  Errors are:
//	-E_MAX_FD: no more file descriptors
// On error, *fd_store is set to 0.
int
fd_alloc(struct Fd **fd_store)
{
  801f2b:	55                   	push   %ebp
  801f2c:	89 e5                	mov    %esp,%ebp
  801f2e:	57                   	push   %edi
  801f2f:	56                   	push   %esi
  801f30:	53                   	push   %ebx
  801f31:	8b 7d 08             	mov    0x8(%ebp),%edi
	int i;
	struct Fd *fd;

	for (i = 0; i < MAXFD; i++) {
		fd = INDEX2FD(i);
		if ((vpd[PDX(fd)] & PTE_P) == 0 || (vpt[VPN(fd)] & PTE_P) == 0) {
  801f34:	a1 00 dd 7b ef       	mov    0xef7bdd00,%eax
  801f39:	a8 01                	test   $0x1,%al
  801f3b:	74 36                	je     801f73 <fd_alloc+0x48>
  801f3d:	a1 00 00 74 ef       	mov    0xef740000,%eax
  801f42:	a8 01                	test   $0x1,%al
  801f44:	74 2d                	je     801f73 <fd_alloc+0x48>
  801f46:	b8 00 10 00 d0       	mov    $0xd0001000,%eax
  801f4b:	b9 00 d0 7b ef       	mov    $0xef7bd000,%ecx
  801f50:	be 00 00 40 ef       	mov    $0xef400000,%esi
  801f55:	89 c3                	mov    %eax,%ebx
  801f57:	89 c2                	mov    %eax,%edx
  801f59:	c1 ea 16             	shr    $0x16,%edx
  801f5c:	8b 14 91             	mov    (%ecx,%edx,4),%edx
  801f5f:	f6 c2 01             	test   $0x1,%dl
  801f62:	74 14                	je     801f78 <fd_alloc+0x4d>
  801f64:	89 c2                	mov    %eax,%edx
  801f66:	c1 ea 0c             	shr    $0xc,%edx
  801f69:	8b 14 96             	mov    (%esi,%edx,4),%edx
  801f6c:	f6 c2 01             	test   $0x1,%dl
  801f6f:	75 10                	jne    801f81 <fd_alloc+0x56>
  801f71:	eb 05                	jmp    801f78 <fd_alloc+0x4d>
  801f73:	bb 00 00 00 d0       	mov    $0xd0000000,%ebx
			*fd_store = fd;
  801f78:	89 1f                	mov    %ebx,(%edi)
  801f7a:	b8 00 00 00 00       	mov    $0x0,%eax
			return 0;
  801f7f:	eb 17                	jmp    801f98 <fd_alloc+0x6d>
  801f81:	05 00 10 00 00       	add    $0x1000,%eax
fd_alloc(struct Fd **fd_store)
{
	int i;
	struct Fd *fd;

	for (i = 0; i < MAXFD; i++) {
  801f86:	3d 00 00 02 d0       	cmp    $0xd0020000,%eax
  801f8b:	75 c8                	jne    801f55 <fd_alloc+0x2a>
		if ((vpd[PDX(fd)] & PTE_P) == 0 || (vpt[VPN(fd)] & PTE_P) == 0) {
			*fd_store = fd;
			return 0;
		}
	}
	*fd_store = 0;
  801f8d:	c7 07 00 00 00 00    	movl   $0x0,(%edi)
  801f93:	b8 f6 ff ff ff       	mov    $0xfffffff6,%eax
	return -E_MAX_OPEN;
}
  801f98:	5b                   	pop    %ebx
  801f99:	5e                   	pop    %esi
  801f9a:	5f                   	pop    %edi
  801f9b:	5d                   	pop    %ebp
  801f9c:	c3                   	ret    

00801f9d <fd_lookup>:
// Returns 0 on success (the page is in range and mapped), < 0 on error.
// Errors are:
//	-E_INVAL: fdnum was either not in range or not mapped.
int
fd_lookup(int fdnum, struct Fd **fd_store)
{
  801f9d:	55                   	push   %ebp
  801f9e:	89 e5                	mov    %esp,%ebp
	struct Fd *fd;

	if (fdnum < 0 || fdnum >= MAXFD) {
  801fa0:	8b 45 08             	mov    0x8(%ebp),%eax
  801fa3:	83 f8 1f             	cmp    $0x1f,%eax
  801fa6:	77 36                	ja     801fde <fd_lookup+0x41>
		if (debug)
			cprintf("[%08x] bad fd %d\n", env->env_id, fd);
		return -E_INVAL;
	}
	fd = INDEX2FD(fdnum);
  801fa8:	05 00 00 0d 00       	add    $0xd0000,%eax
  801fad:	c1 e0 0c             	shl    $0xc,%eax
	if (!(vpd[PDX(fd)] & PTE_P) || !(vpt[VPN(fd)] & PTE_P)) {
  801fb0:	89 c2                	mov    %eax,%edx
  801fb2:	c1 ea 16             	shr    $0x16,%edx
  801fb5:	8b 14 95 00 d0 7b ef 	mov    -0x10843000(,%edx,4),%edx
  801fbc:	f6 c2 01             	test   $0x1,%dl
  801fbf:	74 1d                	je     801fde <fd_lookup+0x41>
  801fc1:	89 c2                	mov    %eax,%edx
  801fc3:	c1 ea 0c             	shr    $0xc,%edx
  801fc6:	8b 14 95 00 00 40 ef 	mov    -0x10c00000(,%edx,4),%edx
  801fcd:	f6 c2 01             	test   $0x1,%dl
  801fd0:	74 0c                	je     801fde <fd_lookup+0x41>
		if (debug)
			cprintf("[%08x] closed fd %d\n", env->env_id, fd);
		return -E_INVAL;
	}
	*fd_store = fd;
  801fd2:	8b 55 0c             	mov    0xc(%ebp),%edx
  801fd5:	89 02                	mov    %eax,(%edx)
  801fd7:	b8 00 00 00 00       	mov    $0x0,%eax
	return 0;
  801fdc:	eb 05                	jmp    801fe3 <fd_lookup+0x46>
  801fde:	b8 fd ff ff ff       	mov    $0xfffffffd,%eax
}
  801fe3:	5d                   	pop    %ebp
  801fe4:	c3                   	ret    

00801fe5 <seek>:
	return (*dev->dev_write)(fd, buf, n);
}

int
seek(int fdnum, off_t offset)
{
  801fe5:	55                   	push   %ebp
  801fe6:	89 e5                	mov    %esp,%ebp
  801fe8:	83 ec 18             	sub    $0x18,%esp
	int r;
	struct Fd *fd;

	if ((r = fd_lookup(fdnum, &fd)) < 0)
  801feb:	8d 45 fc             	lea    -0x4(%ebp),%eax
  801fee:	89 44 24 04          	mov    %eax,0x4(%esp)
  801ff2:	8b 45 08             	mov    0x8(%ebp),%eax
  801ff5:	89 04 24             	mov    %eax,(%esp)
  801ff8:	e8 a0 ff ff ff       	call   801f9d <fd_lookup>
  801ffd:	85 c0                	test   %eax,%eax
  801fff:	78 0e                	js     80200f <seek+0x2a>
		return r;
	fd->fd_offset = offset;
  802001:	8b 45 fc             	mov    -0x4(%ebp),%eax
  802004:	8b 55 0c             	mov    0xc(%ebp),%edx
  802007:	89 50 04             	mov    %edx,0x4(%eax)
  80200a:	b8 00 00 00 00       	mov    $0x0,%eax
	return 0;
}
  80200f:	c9                   	leave  
  802010:	c3                   	ret    

00802011 <dev_lookup>:
	0
};

int
dev_lookup(int dev_id, struct Dev **dev)
{
  802011:	55                   	push   %ebp
  802012:	89 e5                	mov    %esp,%ebp
  802014:	56                   	push   %esi
  802015:	53                   	push   %ebx
  802016:	83 ec 10             	sub    $0x10,%esp
  802019:	8b 4d 08             	mov    0x8(%ebp),%ecx
  80201c:	8b 5d 0c             	mov    0xc(%ebp),%ebx
// File functions
// --------------------------------------------------------------

static struct Dev *devtab[] =
{
	&devfile,
  80201f:	b8 04 90 81 00       	mov    $0x819004,%eax
{
	int i;
	for (i = 0; devtab[i]; i++)
		if (devtab[i]->dev_id == dev_id) {
			*dev = devtab[i];
			return 0;
  802024:	ba 00 00 00 00       	mov    $0x0,%edx

int
dev_lookup(int dev_id, struct Dev **dev)
{
	int i;
	for (i = 0; devtab[i]; i++)
  802029:	be e4 2d 81 00       	mov    $0x812de4,%esi
		if (devtab[i]->dev_id == dev_id) {
  80202e:	39 08                	cmp    %ecx,(%eax)
  802030:	75 10                	jne    802042 <dev_lookup+0x31>
  802032:	eb 04                	jmp    802038 <dev_lookup+0x27>
  802034:	39 08                	cmp    %ecx,(%eax)
  802036:	75 0a                	jne    802042 <dev_lookup+0x31>
			*dev = devtab[i];
  802038:	89 03                	mov    %eax,(%ebx)
  80203a:	b8 00 00 00 00       	mov    $0x0,%eax
			return 0;
  80203f:	90                   	nop
  802040:	eb 31                	jmp    802073 <dev_lookup+0x62>

int
dev_lookup(int dev_id, struct Dev **dev)
{
	int i;
	for (i = 0; devtab[i]; i++)
  802042:	83 c2 01             	add    $0x1,%edx
  802045:	8b 04 96             	mov    (%esi,%edx,4),%eax
  802048:	85 c0                	test   %eax,%eax
  80204a:	75 e8                	jne    802034 <dev_lookup+0x23>
		if (devtab[i]->dev_id == dev_id) {
			*dev = devtab[i];
			return 0;
		}
	cprintf("[%08x] unknown device type %d\n", env->env_id, dev_id);
  80204c:	a1 f4 f5 b3 00       	mov    0xb3f5f4,%eax
  802051:	8b 40 4c             	mov    0x4c(%eax),%eax
  802054:	89 4c 24 08          	mov    %ecx,0x8(%esp)
  802058:	89 44 24 04          	mov    %eax,0x4(%esp)
  80205c:	c7 04 24 68 2d 81 00 	movl   $0x812d68,(%esp)
  802063:	e8 31 ea ff ff       	call   800a99 <cprintf>
	*dev = 0;
  802068:	c7 03 00 00 00 00    	movl   $0x0,(%ebx)
  80206e:	b8 fd ff ff ff       	mov    $0xfffffffd,%eax
	return -E_INVAL;
}
  802073:	83 c4 10             	add    $0x10,%esp
  802076:	5b                   	pop    %ebx
  802077:	5e                   	pop    %esi
  802078:	5d                   	pop    %ebp
  802079:	c3                   	ret    

0080207a <fstat>:
	return (*dev->dev_trunc)(fd, newsize);
}

int
fstat(int fdnum, struct Stat *stat)
{
  80207a:	55                   	push   %ebp
  80207b:	89 e5                	mov    %esp,%ebp
  80207d:	53                   	push   %ebx
  80207e:	83 ec 24             	sub    $0x24,%esp
  802081:	8b 5d 0c             	mov    0xc(%ebp),%ebx
	int r;
	struct Dev *dev;
	struct Fd *fd;

	if ((r = fd_lookup(fdnum, &fd)) < 0
  802084:	8d 45 f0             	lea    -0x10(%ebp),%eax
  802087:	89 44 24 04          	mov    %eax,0x4(%esp)
  80208b:	8b 45 08             	mov    0x8(%ebp),%eax
  80208e:	89 04 24             	mov    %eax,(%esp)
  802091:	e8 07 ff ff ff       	call   801f9d <fd_lookup>
  802096:	85 c0                	test   %eax,%eax
  802098:	78 53                	js     8020ed <fstat+0x73>
	    || (r = dev_lookup(fd->fd_dev_id, &dev)) < 0)
  80209a:	8d 45 f4             	lea    -0xc(%ebp),%eax
  80209d:	89 44 24 04          	mov    %eax,0x4(%esp)
  8020a1:	8b 45 f0             	mov    -0x10(%ebp),%eax
  8020a4:	8b 00                	mov    (%eax),%eax
  8020a6:	89 04 24             	mov    %eax,(%esp)
  8020a9:	e8 63 ff ff ff       	call   802011 <dev_lookup>
{
	int r;
	struct Dev *dev;
	struct Fd *fd;

	if ((r = fd_lookup(fdnum, &fd)) < 0
  8020ae:	85 c0                	test   %eax,%eax
  8020b0:	78 3b                	js     8020ed <fstat+0x73>
	    || (r = dev_lookup(fd->fd_dev_id, &dev)) < 0)
		return r;
	if (!dev->dev_stat)
  8020b2:	b8 f1 ff ff ff       	mov    $0xfffffff1,%eax
  8020b7:	8b 55 f4             	mov    -0xc(%ebp),%edx
  8020ba:	83 7a 14 00          	cmpl   $0x0,0x14(%edx)
  8020be:	74 2d                	je     8020ed <fstat+0x73>
		return -E_NOT_SUPP;
	stat->st_name[0] = 0;
  8020c0:	c6 03 00             	movb   $0x0,(%ebx)
	stat->st_size = 0;
  8020c3:	c7 83 80 00 00 00 00 	movl   $0x0,0x80(%ebx)
  8020ca:	00 00 00 
	stat->st_isdir = 0;
  8020cd:	c7 83 84 00 00 00 00 	movl   $0x0,0x84(%ebx)
  8020d4:	00 00 00 
	stat->st_dev = dev;
  8020d7:	8b 45 f4             	mov    -0xc(%ebp),%eax
  8020da:	89 83 88 00 00 00    	mov    %eax,0x88(%ebx)
	return (*dev->dev_stat)(fd, stat);
  8020e0:	89 5c 24 04          	mov    %ebx,0x4(%esp)
  8020e4:	8b 55 f0             	mov    -0x10(%ebp),%edx
  8020e7:	89 14 24             	mov    %edx,(%esp)
  8020ea:	ff 50 14             	call   *0x14(%eax)
}
  8020ed:	83 c4 24             	add    $0x24,%esp
  8020f0:	5b                   	pop    %ebx
  8020f1:	5d                   	pop    %ebp
  8020f2:	c3                   	ret    

008020f3 <ftruncate>:
	return 0;
}

int
ftruncate(int fdnum, off_t newsize)
{
  8020f3:	55                   	push   %ebp
  8020f4:	89 e5                	mov    %esp,%ebp
  8020f6:	53                   	push   %ebx
  8020f7:	83 ec 24             	sub    $0x24,%esp
  8020fa:	8b 5d 08             	mov    0x8(%ebp),%ebx
	int r;
	struct Dev *dev;
	struct Fd *fd;
	if ((r = fd_lookup(fdnum, &fd)) < 0
  8020fd:	8d 45 f0             	lea    -0x10(%ebp),%eax
  802100:	89 44 24 04          	mov    %eax,0x4(%esp)
  802104:	89 1c 24             	mov    %ebx,(%esp)
  802107:	e8 91 fe ff ff       	call   801f9d <fd_lookup>
  80210c:	85 c0                	test   %eax,%eax
  80210e:	78 5f                	js     80216f <ftruncate+0x7c>
	    || (r = dev_lookup(fd->fd_dev_id, &dev)) < 0)
  802110:	8d 45 f4             	lea    -0xc(%ebp),%eax
  802113:	89 44 24 04          	mov    %eax,0x4(%esp)
  802117:	8b 45 f0             	mov    -0x10(%ebp),%eax
  80211a:	8b 00                	mov    (%eax),%eax
  80211c:	89 04 24             	mov    %eax,(%esp)
  80211f:	e8 ed fe ff ff       	call   802011 <dev_lookup>
ftruncate(int fdnum, off_t newsize)
{
	int r;
	struct Dev *dev;
	struct Fd *fd;
	if ((r = fd_lookup(fdnum, &fd)) < 0
  802124:	85 c0                	test   %eax,%eax
  802126:	78 47                	js     80216f <ftruncate+0x7c>
	    || (r = dev_lookup(fd->fd_dev_id, &dev)) < 0)
		return r;
	if ((fd->fd_omode & O_ACCMODE) == O_RDONLY) {
  802128:	8b 55 f0             	mov    -0x10(%ebp),%edx
  80212b:	f6 42 08 03          	testb  $0x3,0x8(%edx)
  80212f:	75 23                	jne    802154 <ftruncate+0x61>
		cprintf("[%08x] ftruncate %d -- bad mode\n",
			env->env_id, fdnum); 
  802131:	a1 f4 f5 b3 00       	mov    0xb3f5f4,%eax
	struct Fd *fd;
	if ((r = fd_lookup(fdnum, &fd)) < 0
	    || (r = dev_lookup(fd->fd_dev_id, &dev)) < 0)
		return r;
	if ((fd->fd_omode & O_ACCMODE) == O_RDONLY) {
		cprintf("[%08x] ftruncate %d -- bad mode\n",
  802136:	8b 40 4c             	mov    0x4c(%eax),%eax
  802139:	89 5c 24 08          	mov    %ebx,0x8(%esp)
  80213d:	89 44 24 04          	mov    %eax,0x4(%esp)
  802141:	c7 04 24 88 2d 81 00 	movl   $0x812d88,(%esp)
  802148:	e8 4c e9 ff ff       	call   800a99 <cprintf>
  80214d:	b8 fd ff ff ff       	mov    $0xfffffffd,%eax
			env->env_id, fdnum); 
		return -E_INVAL;
  802152:	eb 1b                	jmp    80216f <ftruncate+0x7c>
	}
	if (!dev->dev_trunc)
  802154:	8b 45 f4             	mov    -0xc(%ebp),%eax
  802157:	8b 48 18             	mov    0x18(%eax),%ecx
  80215a:	b8 f1 ff ff ff       	mov    $0xfffffff1,%eax
  80215f:	85 c9                	test   %ecx,%ecx
  802161:	74 0c                	je     80216f <ftruncate+0x7c>
		return -E_NOT_SUPP;
	return (*dev->dev_trunc)(fd, newsize);
  802163:	8b 45 0c             	mov    0xc(%ebp),%eax
  802166:	89 44 24 04          	mov    %eax,0x4(%esp)
  80216a:	89 14 24             	mov    %edx,(%esp)
  80216d:	ff d1                	call   *%ecx
}
  80216f:	83 c4 24             	add    $0x24,%esp
  802172:	5b                   	pop    %ebx
  802173:	5d                   	pop    %ebp
  802174:	c3                   	ret    

00802175 <write>:
	return tot;
}

ssize_t
write(int fdnum, const void *buf, size_t n)
{
  802175:	55                   	push   %ebp
  802176:	89 e5                	mov    %esp,%ebp
  802178:	53                   	push   %ebx
  802179:	83 ec 24             	sub    $0x24,%esp
  80217c:	8b 5d 08             	mov    0x8(%ebp),%ebx
	int r;
	struct Dev *dev;
	struct Fd *fd;

	if ((r = fd_lookup(fdnum, &fd)) < 0
  80217f:	8d 45 f0             	lea    -0x10(%ebp),%eax
  802182:	89 44 24 04          	mov    %eax,0x4(%esp)
  802186:	89 1c 24             	mov    %ebx,(%esp)
  802189:	e8 0f fe ff ff       	call   801f9d <fd_lookup>
  80218e:	85 c0                	test   %eax,%eax
  802190:	78 66                	js     8021f8 <write+0x83>
	    || (r = dev_lookup(fd->fd_dev_id, &dev)) < 0)
  802192:	8d 45 f4             	lea    -0xc(%ebp),%eax
  802195:	89 44 24 04          	mov    %eax,0x4(%esp)
  802199:	8b 45 f0             	mov    -0x10(%ebp),%eax
  80219c:	8b 00                	mov    (%eax),%eax
  80219e:	89 04 24             	mov    %eax,(%esp)
  8021a1:	e8 6b fe ff ff       	call   802011 <dev_lookup>
{
	int r;
	struct Dev *dev;
	struct Fd *fd;

	if ((r = fd_lookup(fdnum, &fd)) < 0
  8021a6:	85 c0                	test   %eax,%eax
  8021a8:	78 4e                	js     8021f8 <write+0x83>
	    || (r = dev_lookup(fd->fd_dev_id, &dev)) < 0)
		return r;
	if ((fd->fd_omode & O_ACCMODE) == O_RDONLY) {
  8021aa:	8b 55 f0             	mov    -0x10(%ebp),%edx
  8021ad:	f6 42 08 03          	testb  $0x3,0x8(%edx)
  8021b1:	75 23                	jne    8021d6 <write+0x61>
		cprintf("[%08x] write %d -- bad mode\n", env->env_id, fdnum);
  8021b3:	a1 f4 f5 b3 00       	mov    0xb3f5f4,%eax
  8021b8:	8b 40 4c             	mov    0x4c(%eax),%eax
  8021bb:	89 5c 24 08          	mov    %ebx,0x8(%esp)
  8021bf:	89 44 24 04          	mov    %eax,0x4(%esp)
  8021c3:	c7 04 24 a9 2d 81 00 	movl   $0x812da9,(%esp)
  8021ca:	e8 ca e8 ff ff       	call   800a99 <cprintf>
  8021cf:	b8 fd ff ff ff       	mov    $0xfffffffd,%eax
		return -E_INVAL;
  8021d4:	eb 22                	jmp    8021f8 <write+0x83>
	}
	if (debug)
		cprintf("write %d %p %d via dev %s\n",
			fdnum, buf, n, dev->dev_name);
	if (!dev->dev_write)
  8021d6:	8b 45 f4             	mov    -0xc(%ebp),%eax
  8021d9:	8b 48 0c             	mov    0xc(%eax),%ecx
  8021dc:	b8 f1 ff ff ff       	mov    $0xfffffff1,%eax
  8021e1:	85 c9                	test   %ecx,%ecx
  8021e3:	74 13                	je     8021f8 <write+0x83>
		return -E_NOT_SUPP;
	return (*dev->dev_write)(fd, buf, n);
  8021e5:	8b 45 10             	mov    0x10(%ebp),%eax
  8021e8:	89 44 24 08          	mov    %eax,0x8(%esp)
  8021ec:	8b 45 0c             	mov    0xc(%ebp),%eax
  8021ef:	89 44 24 04          	mov    %eax,0x4(%esp)
  8021f3:	89 14 24             	mov    %edx,(%esp)
  8021f6:	ff d1                	call   *%ecx
}
  8021f8:	83 c4 24             	add    $0x24,%esp
  8021fb:	5b                   	pop    %ebx
  8021fc:	5d                   	pop    %ebp
  8021fd:	c3                   	ret    

008021fe <read>:
	return r;
}

ssize_t
read(int fdnum, void *buf, size_t n)
{
  8021fe:	55                   	push   %ebp
  8021ff:	89 e5                	mov    %esp,%ebp
  802201:	53                   	push   %ebx
  802202:	83 ec 24             	sub    $0x24,%esp
  802205:	8b 5d 08             	mov    0x8(%ebp),%ebx
	int r;
	struct Dev *dev;
	struct Fd *fd;

	if ((r = fd_lookup(fdnum, &fd)) < 0
  802208:	8d 45 f0             	lea    -0x10(%ebp),%eax
  80220b:	89 44 24 04          	mov    %eax,0x4(%esp)
  80220f:	89 1c 24             	mov    %ebx,(%esp)
  802212:	e8 86 fd ff ff       	call   801f9d <fd_lookup>
  802217:	85 c0                	test   %eax,%eax
  802219:	78 6b                	js     802286 <read+0x88>
	    || (r = dev_lookup(fd->fd_dev_id, &dev)) < 0)
  80221b:	8d 45 f4             	lea    -0xc(%ebp),%eax
  80221e:	89 44 24 04          	mov    %eax,0x4(%esp)
  802222:	8b 45 f0             	mov    -0x10(%ebp),%eax
  802225:	8b 00                	mov    (%eax),%eax
  802227:	89 04 24             	mov    %eax,(%esp)
  80222a:	e8 e2 fd ff ff       	call   802011 <dev_lookup>
{
	int r;
	struct Dev *dev;
	struct Fd *fd;

	if ((r = fd_lookup(fdnum, &fd)) < 0
  80222f:	85 c0                	test   %eax,%eax
  802231:	78 53                	js     802286 <read+0x88>
	    || (r = dev_lookup(fd->fd_dev_id, &dev)) < 0)
		return r;
	if ((fd->fd_omode & O_ACCMODE) == O_WRONLY) {
  802233:	8b 55 f0             	mov    -0x10(%ebp),%edx
  802236:	8b 42 08             	mov    0x8(%edx),%eax
  802239:	83 e0 03             	and    $0x3,%eax
  80223c:	83 f8 01             	cmp    $0x1,%eax
  80223f:	75 23                	jne    802264 <read+0x66>
		cprintf("[%08x] read %d -- bad mode\n", env->env_id, fdnum); 
  802241:	a1 f4 f5 b3 00       	mov    0xb3f5f4,%eax
  802246:	8b 40 4c             	mov    0x4c(%eax),%eax
  802249:	89 5c 24 08          	mov    %ebx,0x8(%esp)
  80224d:	89 44 24 04          	mov    %eax,0x4(%esp)
  802251:	c7 04 24 c6 2d 81 00 	movl   $0x812dc6,(%esp)
  802258:	e8 3c e8 ff ff       	call   800a99 <cprintf>
  80225d:	b8 fd ff ff ff       	mov    $0xfffffffd,%eax
		return -E_INVAL;
  802262:	eb 22                	jmp    802286 <read+0x88>
	}
	if (!dev->dev_read)
  802264:	8b 45 f4             	mov    -0xc(%ebp),%eax
  802267:	8b 48 08             	mov    0x8(%eax),%ecx
  80226a:	b8 f1 ff ff ff       	mov    $0xfffffff1,%eax
  80226f:	85 c9                	test   %ecx,%ecx
  802271:	74 13                	je     802286 <read+0x88>
		return -E_NOT_SUPP;
	return (*dev->dev_read)(fd, buf, n);
  802273:	8b 45 10             	mov    0x10(%ebp),%eax
  802276:	89 44 24 08          	mov    %eax,0x8(%esp)
  80227a:	8b 45 0c             	mov    0xc(%ebp),%eax
  80227d:	89 44 24 04          	mov    %eax,0x4(%esp)
  802281:	89 14 24             	mov    %edx,(%esp)
  802284:	ff d1                	call   *%ecx
}
  802286:	83 c4 24             	add    $0x24,%esp
  802289:	5b                   	pop    %ebx
  80228a:	5d                   	pop    %ebp
  80228b:	c3                   	ret    

0080228c <readn>:

ssize_t
readn(int fdnum, void *buf, size_t n)
{
  80228c:	55                   	push   %ebp
  80228d:	89 e5                	mov    %esp,%ebp
  80228f:	57                   	push   %edi
  802290:	56                   	push   %esi
  802291:	53                   	push   %ebx
  802292:	83 ec 1c             	sub    $0x1c,%esp
  802295:	8b 7d 08             	mov    0x8(%ebp),%edi
  802298:	8b 75 10             	mov    0x10(%ebp),%esi
	int m, tot;

	for (tot = 0; tot < n; tot += m) {
  80229b:	ba 00 00 00 00       	mov    $0x0,%edx
  8022a0:	bb 00 00 00 00       	mov    $0x0,%ebx
  8022a5:	b8 00 00 00 00       	mov    $0x0,%eax
  8022aa:	85 f6                	test   %esi,%esi
  8022ac:	74 29                	je     8022d7 <readn+0x4b>
		m = read(fdnum, (char*)buf + tot, n - tot);
  8022ae:	89 f0                	mov    %esi,%eax
  8022b0:	29 d0                	sub    %edx,%eax
  8022b2:	89 44 24 08          	mov    %eax,0x8(%esp)
  8022b6:	03 55 0c             	add    0xc(%ebp),%edx
  8022b9:	89 54 24 04          	mov    %edx,0x4(%esp)
  8022bd:	89 3c 24             	mov    %edi,(%esp)
  8022c0:	e8 39 ff ff ff       	call   8021fe <read>
		if (m < 0)
  8022c5:	85 c0                	test   %eax,%eax
  8022c7:	78 0e                	js     8022d7 <readn+0x4b>
			return m;
		if (m == 0)
  8022c9:	85 c0                	test   %eax,%eax
  8022cb:	74 08                	je     8022d5 <readn+0x49>
ssize_t
readn(int fdnum, void *buf, size_t n)
{
	int m, tot;

	for (tot = 0; tot < n; tot += m) {
  8022cd:	01 c3                	add    %eax,%ebx
  8022cf:	89 da                	mov    %ebx,%edx
  8022d1:	39 f3                	cmp    %esi,%ebx
  8022d3:	72 d9                	jb     8022ae <readn+0x22>
  8022d5:	89 d8                	mov    %ebx,%eax
			return m;
		if (m == 0)
			break;
	}
	return tot;
}
  8022d7:	83 c4 1c             	add    $0x1c,%esp
  8022da:	5b                   	pop    %ebx
  8022db:	5e                   	pop    %esi
  8022dc:	5f                   	pop    %edi
  8022dd:	5d                   	pop    %ebp
  8022de:	c3                   	ret    

008022df <fd_close>:
// If 'must_exist' is 1, then fd_close returns -E_INVAL when passed a
// closed or nonexistent file descriptor.
// Returns 0 on success, < 0 on error.
int
fd_close(struct Fd *fd, bool must_exist)
{
  8022df:	55                   	push   %ebp
  8022e0:	89 e5                	mov    %esp,%ebp
  8022e2:	56                   	push   %esi
  8022e3:	53                   	push   %ebx
  8022e4:	83 ec 20             	sub    $0x20,%esp
  8022e7:	8b 75 08             	mov    0x8(%ebp),%esi
	struct Fd *fd2;
	struct Dev *dev;
	int r;
	if ((r = fd_lookup(fd2num(fd), &fd2)) < 0
  8022ea:	89 34 24             	mov    %esi,(%esp)
  8022ed:	e8 0e fc ff ff       	call   801f00 <fd2num>
  8022f2:	8d 55 f4             	lea    -0xc(%ebp),%edx
  8022f5:	89 54 24 04          	mov    %edx,0x4(%esp)
  8022f9:	89 04 24             	mov    %eax,(%esp)
  8022fc:	e8 9c fc ff ff       	call   801f9d <fd_lookup>
  802301:	89 c3                	mov    %eax,%ebx
  802303:	85 c0                	test   %eax,%eax
  802305:	78 05                	js     80230c <fd_close+0x2d>
  802307:	3b 75 f4             	cmp    -0xc(%ebp),%esi
  80230a:	74 0c                	je     802318 <fd_close+0x39>
	    || fd != fd2)
		return (must_exist ? r : 0);
  80230c:	83 7d 0c 01          	cmpl   $0x1,0xc(%ebp)
  802310:	19 c0                	sbb    %eax,%eax
  802312:	f7 d0                	not    %eax
  802314:	21 c3                	and    %eax,%ebx
  802316:	eb 3d                	jmp    802355 <fd_close+0x76>
	if ((r = dev_lookup(fd->fd_dev_id, &dev)) >= 0) {
  802318:	8d 45 f0             	lea    -0x10(%ebp),%eax
  80231b:	89 44 24 04          	mov    %eax,0x4(%esp)
  80231f:	8b 06                	mov    (%esi),%eax
  802321:	89 04 24             	mov    %eax,(%esp)
  802324:	e8 e8 fc ff ff       	call   802011 <dev_lookup>
  802329:	89 c3                	mov    %eax,%ebx
  80232b:	85 c0                	test   %eax,%eax
  80232d:	78 16                	js     802345 <fd_close+0x66>
		if (dev->dev_close)
  80232f:	8b 45 f0             	mov    -0x10(%ebp),%eax
  802332:	8b 40 10             	mov    0x10(%eax),%eax
  802335:	bb 00 00 00 00       	mov    $0x0,%ebx
  80233a:	85 c0                	test   %eax,%eax
  80233c:	74 07                	je     802345 <fd_close+0x66>
			r = (*dev->dev_close)(fd);
  80233e:	89 34 24             	mov    %esi,(%esp)
  802341:	ff d0                	call   *%eax
  802343:	89 c3                	mov    %eax,%ebx
		else
			r = 0;
	}
	// Make sure fd is unmapped.  Might be a no-op if
	// (*dev->dev_close)(fd) already unmapped it.
	(void) sys_page_unmap(0, fd);
  802345:	89 74 24 04          	mov    %esi,0x4(%esp)
  802349:	c7 04 24 00 00 00 00 	movl   $0x0,(%esp)
  802350:	e8 3a f5 ff ff       	call   80188f <sys_page_unmap>
	return r;
}
  802355:	89 d8                	mov    %ebx,%eax
  802357:	83 c4 20             	add    $0x20,%esp
  80235a:	5b                   	pop    %ebx
  80235b:	5e                   	pop    %esi
  80235c:	5d                   	pop    %ebp
  80235d:	c3                   	ret    

0080235e <close>:
	return -E_INVAL;
}

int
close(int fdnum)
{
  80235e:	55                   	push   %ebp
  80235f:	89 e5                	mov    %esp,%ebp
  802361:	83 ec 28             	sub    $0x28,%esp
	struct Fd *fd;
	int r;

	if ((r = fd_lookup(fdnum, &fd)) < 0)
  802364:	8d 45 f4             	lea    -0xc(%ebp),%eax
  802367:	89 44 24 04          	mov    %eax,0x4(%esp)
  80236b:	8b 45 08             	mov    0x8(%ebp),%eax
  80236e:	89 04 24             	mov    %eax,(%esp)
  802371:	e8 27 fc ff ff       	call   801f9d <fd_lookup>
  802376:	85 c0                	test   %eax,%eax
  802378:	78 13                	js     80238d <close+0x2f>
		return r;
	else
		return fd_close(fd, 1);
  80237a:	c7 44 24 04 01 00 00 	movl   $0x1,0x4(%esp)
  802381:	00 
  802382:	8b 45 f4             	mov    -0xc(%ebp),%eax
  802385:	89 04 24             	mov    %eax,(%esp)
  802388:	e8 52 ff ff ff       	call   8022df <fd_close>
}
  80238d:	c9                   	leave  
  80238e:	c3                   	ret    

0080238f <stat>:
	return (*dev->dev_stat)(fd, stat);
}

int
stat(const char *path, struct Stat *stat)
{
  80238f:	55                   	push   %ebp
  802390:	89 e5                	mov    %esp,%ebp
  802392:	83 ec 18             	sub    $0x18,%esp
  802395:	89 5d f8             	mov    %ebx,-0x8(%ebp)
  802398:	89 75 fc             	mov    %esi,-0x4(%ebp)
	int fd, r;

	if ((fd = open(path, O_RDONLY)) < 0)
  80239b:	c7 44 24 04 00 00 00 	movl   $0x0,0x4(%esp)
  8023a2:	00 
  8023a3:	8b 45 08             	mov    0x8(%ebp),%eax
  8023a6:	89 04 24             	mov    %eax,(%esp)
  8023a9:	e8 55 03 00 00       	call   802703 <open>
  8023ae:	89 c3                	mov    %eax,%ebx
  8023b0:	85 c0                	test   %eax,%eax
  8023b2:	78 1b                	js     8023cf <stat+0x40>
		return fd;
	r = fstat(fd, stat);
  8023b4:	8b 45 0c             	mov    0xc(%ebp),%eax
  8023b7:	89 44 24 04          	mov    %eax,0x4(%esp)
  8023bb:	89 1c 24             	mov    %ebx,(%esp)
  8023be:	e8 b7 fc ff ff       	call   80207a <fstat>
  8023c3:	89 c6                	mov    %eax,%esi
	close(fd);
  8023c5:	89 1c 24             	mov    %ebx,(%esp)
  8023c8:	e8 91 ff ff ff       	call   80235e <close>
  8023cd:	89 f3                	mov    %esi,%ebx
	return r;
}
  8023cf:	89 d8                	mov    %ebx,%eax
  8023d1:	8b 5d f8             	mov    -0x8(%ebp),%ebx
  8023d4:	8b 75 fc             	mov    -0x4(%ebp),%esi
  8023d7:	89 ec                	mov    %ebp,%esp
  8023d9:	5d                   	pop    %ebp
  8023da:	c3                   	ret    

008023db <close_all>:
		return fd_close(fd, 1);
}

void
close_all(void)
{
  8023db:	55                   	push   %ebp
  8023dc:	89 e5                	mov    %esp,%ebp
  8023de:	53                   	push   %ebx
  8023df:	83 ec 14             	sub    $0x14,%esp
  8023e2:	bb 00 00 00 00       	mov    $0x0,%ebx
	int i;
	for (i = 0; i < MAXFD; i++)
		close(i);
  8023e7:	89 1c 24             	mov    %ebx,(%esp)
  8023ea:	e8 6f ff ff ff       	call   80235e <close>

void
close_all(void)
{
	int i;
	for (i = 0; i < MAXFD; i++)
  8023ef:	83 c3 01             	add    $0x1,%ebx
  8023f2:	83 fb 20             	cmp    $0x20,%ebx
  8023f5:	75 f0                	jne    8023e7 <close_all+0xc>
		close(i);
}
  8023f7:	83 c4 14             	add    $0x14,%esp
  8023fa:	5b                   	pop    %ebx
  8023fb:	5d                   	pop    %ebp
  8023fc:	c3                   	ret    

008023fd <dup>:
// file and the file offset of the other.
// Closes any previously open file descriptor at 'newfdnum'.
// This is implemented using virtual memory tricks (of course!).
int
dup(int oldfdnum, int newfdnum)
{
  8023fd:	55                   	push   %ebp
  8023fe:	89 e5                	mov    %esp,%ebp
  802400:	83 ec 58             	sub    $0x58,%esp
  802403:	89 5d f4             	mov    %ebx,-0xc(%ebp)
  802406:	89 75 f8             	mov    %esi,-0x8(%ebp)
  802409:	89 7d fc             	mov    %edi,-0x4(%ebp)
  80240c:	8b 7d 0c             	mov    0xc(%ebp),%edi
	int r;
	char *ova, *nva;
	pte_t pte;
	struct Fd *oldfd, *newfd;

	if ((r = fd_lookup(oldfdnum, &oldfd)) < 0)
  80240f:	8d 45 e4             	lea    -0x1c(%ebp),%eax
  802412:	89 44 24 04          	mov    %eax,0x4(%esp)
  802416:	8b 45 08             	mov    0x8(%ebp),%eax
  802419:	89 04 24             	mov    %eax,(%esp)
  80241c:	e8 7c fb ff ff       	call   801f9d <fd_lookup>
  802421:	89 c3                	mov    %eax,%ebx
  802423:	85 c0                	test   %eax,%eax
  802425:	0f 88 e0 00 00 00    	js     80250b <dup+0x10e>
		return r;
	close(newfdnum);
  80242b:	89 3c 24             	mov    %edi,(%esp)
  80242e:	e8 2b ff ff ff       	call   80235e <close>

	newfd = INDEX2FD(newfdnum);
  802433:	8d b7 00 00 0d 00    	lea    0xd0000(%edi),%esi
  802439:	c1 e6 0c             	shl    $0xc,%esi
	ova = fd2data(oldfd);
  80243c:	8b 45 e4             	mov    -0x1c(%ebp),%eax
  80243f:	89 04 24             	mov    %eax,(%esp)
  802442:	e8 c9 fa ff ff       	call   801f10 <fd2data>
  802447:	89 c3                	mov    %eax,%ebx
	nva = fd2data(newfd);
  802449:	89 34 24             	mov    %esi,(%esp)
  80244c:	e8 bf fa ff ff       	call   801f10 <fd2data>
  802451:	89 45 d4             	mov    %eax,-0x2c(%ebp)

	if ((vpd[PDX(ova)] & PTE_P) && (vpt[VPN(ova)] & PTE_P))
  802454:	89 da                	mov    %ebx,%edx
  802456:	89 d8                	mov    %ebx,%eax
  802458:	c1 e8 16             	shr    $0x16,%eax
  80245b:	8b 04 85 00 d0 7b ef 	mov    -0x10843000(,%eax,4),%eax
  802462:	a8 01                	test   $0x1,%al
  802464:	74 43                	je     8024a9 <dup+0xac>
  802466:	c1 ea 0c             	shr    $0xc,%edx
  802469:	8b 04 95 00 00 40 ef 	mov    -0x10c00000(,%edx,4),%eax
  802470:	a8 01                	test   $0x1,%al
  802472:	74 35                	je     8024a9 <dup+0xac>
		if ((r = sys_page_map(0, ova, 0, nva, vpt[VPN(ova)] & PTE_USER)) < 0)
  802474:	8b 04 95 00 00 40 ef 	mov    -0x10c00000(,%edx,4),%eax
  80247b:	25 07 0e 00 00       	and    $0xe07,%eax
  802480:	89 44 24 10          	mov    %eax,0x10(%esp)
  802484:	8b 45 d4             	mov    -0x2c(%ebp),%eax
  802487:	89 44 24 0c          	mov    %eax,0xc(%esp)
  80248b:	c7 44 24 08 00 00 00 	movl   $0x0,0x8(%esp)
  802492:	00 
  802493:	89 5c 24 04          	mov    %ebx,0x4(%esp)
  802497:	c7 04 24 00 00 00 00 	movl   $0x0,(%esp)
  80249e:	e8 4a f4 ff ff       	call   8018ed <sys_page_map>
  8024a3:	89 c3                	mov    %eax,%ebx
  8024a5:	85 c0                	test   %eax,%eax
  8024a7:	78 3f                	js     8024e8 <dup+0xeb>
			goto err;
	if ((r = sys_page_map(0, oldfd, 0, newfd, vpt[VPN(oldfd)] & PTE_USER)) < 0)
  8024a9:	8b 45 e4             	mov    -0x1c(%ebp),%eax
  8024ac:	89 c2                	mov    %eax,%edx
  8024ae:	c1 ea 0c             	shr    $0xc,%edx
  8024b1:	8b 14 95 00 00 40 ef 	mov    -0x10c00000(,%edx,4),%edx
  8024b8:	81 e2 07 0e 00 00    	and    $0xe07,%edx
  8024be:	89 54 24 10          	mov    %edx,0x10(%esp)
  8024c2:	89 74 24 0c          	mov    %esi,0xc(%esp)
  8024c6:	c7 44 24 08 00 00 00 	movl   $0x0,0x8(%esp)
  8024cd:	00 
  8024ce:	89 44 24 04          	mov    %eax,0x4(%esp)
  8024d2:	c7 04 24 00 00 00 00 	movl   $0x0,(%esp)
  8024d9:	e8 0f f4 ff ff       	call   8018ed <sys_page_map>
  8024de:	89 c3                	mov    %eax,%ebx
  8024e0:	85 c0                	test   %eax,%eax
  8024e2:	78 04                	js     8024e8 <dup+0xeb>
  8024e4:	89 fb                	mov    %edi,%ebx
  8024e6:	eb 23                	jmp    80250b <dup+0x10e>
		goto err;

	return newfdnum;

err:
	sys_page_unmap(0, newfd);
  8024e8:	89 74 24 04          	mov    %esi,0x4(%esp)
  8024ec:	c7 04 24 00 00 00 00 	movl   $0x0,(%esp)
  8024f3:	e8 97 f3 ff ff       	call   80188f <sys_page_unmap>
	sys_page_unmap(0, nva);
  8024f8:	8b 45 d4             	mov    -0x2c(%ebp),%eax
  8024fb:	89 44 24 04          	mov    %eax,0x4(%esp)
  8024ff:	c7 04 24 00 00 00 00 	movl   $0x0,(%esp)
  802506:	e8 84 f3 ff ff       	call   80188f <sys_page_unmap>
	return r;
}
  80250b:	89 d8                	mov    %ebx,%eax
  80250d:	8b 5d f4             	mov    -0xc(%ebp),%ebx
  802510:	8b 75 f8             	mov    -0x8(%ebp),%esi
  802513:	8b 7d fc             	mov    -0x4(%ebp),%edi
  802516:	89 ec                	mov    %ebp,%esp
  802518:	5d                   	pop    %ebp
  802519:	c3                   	ret    
	...

0080251c <fsipc>:
// type: request code, passed as the simple integer IPC value.
// dstva: virtual address at which to receive reply page, 0 if none.
// Returns result from the file server.
static int
fsipc(unsigned type, void *dstva)
{
  80251c:	55                   	push   %ebp
  80251d:	89 e5                	mov    %esp,%ebp
  80251f:	53                   	push   %ebx
  802520:	83 ec 14             	sub    $0x14,%esp
  802523:	89 d3                	mov    %edx,%ebx
	if (debug)
		cprintf("[%08x] fsipc %d %08x\n", env->env_id, type, *(uint32_t *)&fsipcbuf);

	ipc_send(envs[1].env_id, type, &fsipcbuf, PTE_P | PTE_W | PTE_U);
  802525:	8b 15 c8 00 c0 ee    	mov    0xeec000c8,%edx
  80252b:	c7 44 24 0c 07 00 00 	movl   $0x7,0xc(%esp)
  802532:	00 
  802533:	c7 44 24 08 00 60 81 	movl   $0x816000,0x8(%esp)
  80253a:	00 
  80253b:	89 44 24 04          	mov    %eax,0x4(%esp)
  80253f:	89 14 24             	mov    %edx,(%esp)
  802542:	e8 e9 f8 ff ff       	call   801e30 <ipc_send>
	return ipc_recv(NULL, dstva, NULL);
  802547:	c7 44 24 08 00 00 00 	movl   $0x0,0x8(%esp)
  80254e:	00 
  80254f:	89 5c 24 04          	mov    %ebx,0x4(%esp)
  802553:	c7 04 24 00 00 00 00 	movl   $0x0,(%esp)
  80255a:	e8 37 f9 ff ff       	call   801e96 <ipc_recv>
}
  80255f:	83 c4 14             	add    $0x14,%esp
  802562:	5b                   	pop    %ebx
  802563:	5d                   	pop    %ebp
  802564:	c3                   	ret    

00802565 <devfile_trunc>:
}

// Truncate or extend an open file to 'size' bytes
static int
devfile_trunc(struct Fd *fd, off_t newsize)
{
  802565:	55                   	push   %ebp
  802566:	89 e5                	mov    %esp,%ebp
  802568:	83 ec 08             	sub    $0x8,%esp
	fsipcbuf.set_size.req_fileid = fd->fd_file.id;
  80256b:	8b 45 08             	mov    0x8(%ebp),%eax
  80256e:	8b 40 0c             	mov    0xc(%eax),%eax
  802571:	a3 00 60 81 00       	mov    %eax,0x816000
	fsipcbuf.set_size.req_size = newsize;
  802576:	8b 45 0c             	mov    0xc(%ebp),%eax
  802579:	a3 04 60 81 00       	mov    %eax,0x816004
	return fsipc(FSREQ_SET_SIZE, NULL);
  80257e:	ba 00 00 00 00       	mov    $0x0,%edx
  802583:	b8 02 00 00 00       	mov    $0x2,%eax
  802588:	e8 8f ff ff ff       	call   80251c <fsipc>
}
  80258d:	c9                   	leave  
  80258e:	c3                   	ret    

0080258f <devfile_flush>:
// open, unmapping it is enough to free up server-side resources.
// Other than that, we just have to make sure our changes are flushed
// to disk.
static int
devfile_flush(struct Fd *fd)
{
  80258f:	55                   	push   %ebp
  802590:	89 e5                	mov    %esp,%ebp
  802592:	83 ec 08             	sub    $0x8,%esp
	fsipcbuf.flush.req_fileid = fd->fd_file.id;
  802595:	8b 45 08             	mov    0x8(%ebp),%eax
  802598:	8b 40 0c             	mov    0xc(%eax),%eax
  80259b:	a3 00 60 81 00       	mov    %eax,0x816000
	return fsipc(FSREQ_FLUSH, NULL);
  8025a0:	ba 00 00 00 00       	mov    $0x0,%edx
  8025a5:	b8 06 00 00 00       	mov    $0x6,%eax
  8025aa:	e8 6d ff ff ff       	call   80251c <fsipc>
}
  8025af:	c9                   	leave  
  8025b0:	c3                   	ret    

008025b1 <sync>:
}

// Synchronize disk with buffer cache
int
sync(void)
{
  8025b1:	55                   	push   %ebp
  8025b2:	89 e5                	mov    %esp,%ebp
  8025b4:	83 ec 08             	sub    $0x8,%esp
	// Ask the file server to update the disk
	// by writing any dirty blocks in the buffer cache.

	return fsipc(FSREQ_SYNC, NULL);
  8025b7:	ba 00 00 00 00       	mov    $0x0,%edx
  8025bc:	b8 08 00 00 00       	mov    $0x8,%eax
  8025c1:	e8 56 ff ff ff       	call   80251c <fsipc>
}
  8025c6:	c9                   	leave  
  8025c7:	c3                   	ret    

008025c8 <devfile_stat>:
	return fsipc(FSREQ_WRITE, NULL);	
}

static int
devfile_stat(struct Fd *fd, struct Stat *st)
{
  8025c8:	55                   	push   %ebp
  8025c9:	89 e5                	mov    %esp,%ebp
  8025cb:	53                   	push   %ebx
  8025cc:	83 ec 14             	sub    $0x14,%esp
  8025cf:	8b 5d 0c             	mov    0xc(%ebp),%ebx
	int r;

	fsipcbuf.stat.req_fileid = fd->fd_file.id;
  8025d2:	8b 45 08             	mov    0x8(%ebp),%eax
  8025d5:	8b 40 0c             	mov    0xc(%eax),%eax
  8025d8:	a3 00 60 81 00       	mov    %eax,0x816000
	if ((r = fsipc(FSREQ_STAT, NULL)) < 0)
  8025dd:	ba 00 00 00 00       	mov    $0x0,%edx
  8025e2:	b8 05 00 00 00       	mov    $0x5,%eax
  8025e7:	e8 30 ff ff ff       	call   80251c <fsipc>
  8025ec:	85 c0                	test   %eax,%eax
  8025ee:	78 2b                	js     80261b <devfile_stat+0x53>
		return r;
	strcpy(st->st_name, fsipcbuf.statRet.ret_name);
  8025f0:	c7 44 24 04 00 60 81 	movl   $0x816000,0x4(%esp)
  8025f7:	00 
  8025f8:	89 1c 24             	mov    %ebx,(%esp)
  8025fb:	e8 5a eb ff ff       	call   80115a <strcpy>
	st->st_size = fsipcbuf.statRet.ret_size;
  802600:	a1 80 60 81 00       	mov    0x816080,%eax
  802605:	89 83 80 00 00 00    	mov    %eax,0x80(%ebx)
	st->st_isdir = fsipcbuf.statRet.ret_isdir;
  80260b:	a1 84 60 81 00       	mov    0x816084,%eax
  802610:	89 83 84 00 00 00    	mov    %eax,0x84(%ebx)
  802616:	b8 00 00 00 00       	mov    $0x0,%eax
	return 0;
}
  80261b:	83 c4 14             	add    $0x14,%esp
  80261e:	5b                   	pop    %ebx
  80261f:	5d                   	pop    %ebp
  802620:	c3                   	ret    

00802621 <devfile_write>:
// Returns:
//	 The number of bytes successfully written.
//	 < 0 on error.
static ssize_t
devfile_write(struct Fd *fd, const void *buf, size_t n)
{
  802621:	55                   	push   %ebp
  802622:	89 e5                	mov    %esp,%ebp
  802624:	83 ec 18             	sub    $0x18,%esp
  802627:	8b 45 10             	mov    0x10(%ebp),%eax
  80262a:	3d f8 0f 00 00       	cmp    $0xff8,%eax
  80262f:	76 05                	jbe    802636 <devfile_write+0x15>
  802631:	b8 f8 0f 00 00       	mov    $0xff8,%eax
	// LAB 5: Your code here
	//panic("devfile_write not implemented");
	
	if (n > (PGSIZE - (sizeof(int) + sizeof(size_t))))
		n = PGSIZE - (sizeof(int) + sizeof(size_t));
	fsipcbuf.write.req_fileid = fd->fd_file.id;
  802636:	8b 55 08             	mov    0x8(%ebp),%edx
  802639:	8b 52 0c             	mov    0xc(%edx),%edx
  80263c:	89 15 00 60 81 00    	mov    %edx,0x816000
	fsipcbuf.write.req_n = n;
  802642:	a3 04 60 81 00       	mov    %eax,0x816004
	memmove (fsipcbuf.write.req_buf, (char*)buf, n);	
  802647:	89 44 24 08          	mov    %eax,0x8(%esp)
  80264b:	8b 45 0c             	mov    0xc(%ebp),%eax
  80264e:	89 44 24 04          	mov    %eax,0x4(%esp)
  802652:	c7 04 24 08 60 81 00 	movl   $0x816008,(%esp)
  802659:	e8 b7 ec ff ff       	call   801315 <memmove>
	return fsipc(FSREQ_WRITE, NULL);	
  80265e:	ba 00 00 00 00       	mov    $0x0,%edx
  802663:	b8 04 00 00 00       	mov    $0x4,%eax
  802668:	e8 af fe ff ff       	call   80251c <fsipc>
}
  80266d:	c9                   	leave  
  80266e:	c3                   	ret    

0080266f <devfile_read>:
// Returns:
// 	The number of bytes successfully read.
// 	< 0 on error.
static ssize_t
devfile_read(struct Fd *fd, void *buf, size_t n)
{
  80266f:	55                   	push   %ebp
  802670:	89 e5                	mov    %esp,%ebp
  802672:	53                   	push   %ebx
  802673:	83 ec 14             	sub    $0x14,%esp
	// system server.
	// LAB 5: Your code here
	
	//panic("devfile_read not implemented");
	int r;
	fsipcbuf.read.req_fileid = fd->fd_file.id;
  802676:	8b 45 08             	mov    0x8(%ebp),%eax
  802679:	8b 40 0c             	mov    0xc(%eax),%eax
  80267c:	a3 00 60 81 00       	mov    %eax,0x816000
	fsipcbuf.read.req_n = n;
  802681:	8b 45 10             	mov    0x10(%ebp),%eax
  802684:	a3 04 60 81 00       	mov    %eax,0x816004
	if ((r = fsipc(FSREQ_READ, (void*)&fsipcbuf)) < 0)
  802689:	ba 00 60 81 00       	mov    $0x816000,%edx
  80268e:	b8 03 00 00 00       	mov    $0x3,%eax
  802693:	e8 84 fe ff ff       	call   80251c <fsipc>
  802698:	89 c3                	mov    %eax,%ebx
  80269a:	85 c0                	test   %eax,%eax
  80269c:	78 17                	js     8026b5 <devfile_read+0x46>
		return r;
	memmove((void*)buf, (void*)fsipcbuf.readRet.ret_buf, r);
  80269e:	89 44 24 08          	mov    %eax,0x8(%esp)
  8026a2:	c7 44 24 04 00 60 81 	movl   $0x816000,0x4(%esp)
  8026a9:	00 
  8026aa:	8b 45 0c             	mov    0xc(%ebp),%eax
  8026ad:	89 04 24             	mov    %eax,(%esp)
  8026b0:	e8 60 ec ff ff       	call   801315 <memmove>
	return r;
}
  8026b5:	89 d8                	mov    %ebx,%eax
  8026b7:	83 c4 14             	add    $0x14,%esp
  8026ba:	5b                   	pop    %ebx
  8026bb:	5d                   	pop    %ebp
  8026bc:	c3                   	ret    

008026bd <remove>:
}

// Delete a file
int
remove(const char *path)
{
  8026bd:	55                   	push   %ebp
  8026be:	89 e5                	mov    %esp,%ebp
  8026c0:	53                   	push   %ebx
  8026c1:	83 ec 14             	sub    $0x14,%esp
  8026c4:	8b 5d 08             	mov    0x8(%ebp),%ebx
	if (strlen(path) >= MAXPATHLEN)
  8026c7:	89 1c 24             	mov    %ebx,(%esp)
  8026ca:	e8 41 ea ff ff       	call   801110 <strlen>
  8026cf:	89 c2                	mov    %eax,%edx
  8026d1:	b8 f4 ff ff ff       	mov    $0xfffffff4,%eax
  8026d6:	81 fa ff 03 00 00    	cmp    $0x3ff,%edx
  8026dc:	7f 1f                	jg     8026fd <remove+0x40>
		return -E_BAD_PATH;
	strcpy(fsipcbuf.remove.req_path, path);
  8026de:	89 5c 24 04          	mov    %ebx,0x4(%esp)
  8026e2:	c7 04 24 00 60 81 00 	movl   $0x816000,(%esp)
  8026e9:	e8 6c ea ff ff       	call   80115a <strcpy>
	return fsipc(FSREQ_REMOVE, NULL);
  8026ee:	ba 00 00 00 00       	mov    $0x0,%edx
  8026f3:	b8 07 00 00 00       	mov    $0x7,%eax
  8026f8:	e8 1f fe ff ff       	call   80251c <fsipc>
}
  8026fd:	83 c4 14             	add    $0x14,%esp
  802700:	5b                   	pop    %ebx
  802701:	5d                   	pop    %ebp
  802702:	c3                   	ret    

00802703 <open>:
// 	The file descriptor index on success
// 	-E_BAD_PATH if the path is too long (>= MAXPATHLEN)
// 	< 0 for other errors.
int
open(const char *path, int mode)
{
  802703:	55                   	push   %ebp
  802704:	89 e5                	mov    %esp,%ebp
  802706:	83 ec 28             	sub    $0x28,%esp
  802709:	89 5d f8             	mov    %ebx,-0x8(%ebp)
  80270c:	89 75 fc             	mov    %esi,-0x4(%ebp)
  80270f:	8b 75 08             	mov    0x8(%ebp),%esi
	// file descriptor.

	// LAB 5: Your code here.
	// Code added by Swastika / Sandeep
	
	if (strlen(path) >= MAXPATHLEN)
  802712:	89 34 24             	mov    %esi,(%esp)
  802715:	e8 f6 e9 ff ff       	call   801110 <strlen>
  80271a:	bb f4 ff ff ff       	mov    $0xfffffff4,%ebx
  80271f:	3d ff 03 00 00       	cmp    $0x3ff,%eax
  802724:	7f 5e                	jg     802784 <open+0x81>
		return -E_BAD_PATH;
	struct Fd * fd;
	int  r;
	if ((r = fd_alloc(&fd)) < 0)
  802726:	8d 45 f4             	lea    -0xc(%ebp),%eax
  802729:	89 04 24             	mov    %eax,(%esp)
  80272c:	e8 fa f7 ff ff       	call   801f2b <fd_alloc>
  802731:	89 c3                	mov    %eax,%ebx
  802733:	85 c0                	test   %eax,%eax
  802735:	78 4d                	js     802784 <open+0x81>
		return r;
	strcpy (fsipcbuf.open.req_path, path);
  802737:	89 74 24 04          	mov    %esi,0x4(%esp)
  80273b:	c7 04 24 00 60 81 00 	movl   $0x816000,(%esp)
  802742:	e8 13 ea ff ff       	call   80115a <strcpy>
	fsipcbuf.open.req_omode = mode;	
  802747:	8b 45 0c             	mov    0xc(%ebp),%eax
  80274a:	a3 00 64 81 00       	mov    %eax,0x816400
	if ((r = fsipc(FSREQ_OPEN,(void*)fd)) < 0)
  80274f:	8b 55 f4             	mov    -0xc(%ebp),%edx
  802752:	b8 01 00 00 00       	mov    $0x1,%eax
  802757:	e8 c0 fd ff ff       	call   80251c <fsipc>
  80275c:	89 c3                	mov    %eax,%ebx
  80275e:	85 c0                	test   %eax,%eax
  802760:	79 15                	jns    802777 <open+0x74>
	{
		fd_close(fd,0);
  802762:	c7 44 24 04 00 00 00 	movl   $0x0,0x4(%esp)
  802769:	00 
  80276a:	8b 45 f4             	mov    -0xc(%ebp),%eax
  80276d:	89 04 24             	mov    %eax,(%esp)
  802770:	e8 6a fb ff ff       	call   8022df <fd_close>
		return r; 
  802775:	eb 0d                	jmp    802784 <open+0x81>
	}
	return fd2num(fd);
  802777:	8b 45 f4             	mov    -0xc(%ebp),%eax
  80277a:	89 04 24             	mov    %eax,(%esp)
  80277d:	e8 7e f7 ff ff       	call   801f00 <fd2num>
  802782:	89 c3                	mov    %eax,%ebx
	//panic("open not implemented");
}
  802784:	89 d8                	mov    %ebx,%eax
  802786:	8b 5d f8             	mov    -0x8(%ebp),%ebx
  802789:	8b 75 fc             	mov    -0x4(%ebp),%esi
  80278c:	89 ec                	mov    %ebp,%esp
  80278e:	5d                   	pop    %ebp
  80278f:	c3                   	ret    

00802790 <devsock_stat>:
	return nsipc_send(fd->fd_sock.sockid, buf, n, 0);
}

static int
devsock_stat(struct Fd *fd, struct Stat *stat)
{
  802790:	55                   	push   %ebp
  802791:	89 e5                	mov    %esp,%ebp
  802793:	83 ec 18             	sub    $0x18,%esp
	strcpy(stat->st_name, "<sock>");
  802796:	c7 44 24 04 f8 2d 81 	movl   $0x812df8,0x4(%esp)
  80279d:	00 
  80279e:	8b 45 0c             	mov    0xc(%ebp),%eax
  8027a1:	89 04 24             	mov    %eax,(%esp)
  8027a4:	e8 b1 e9 ff ff       	call   80115a <strcpy>
	return 0;
}
  8027a9:	b8 00 00 00 00       	mov    $0x0,%eax
  8027ae:	c9                   	leave  
  8027af:	c3                   	ret    

008027b0 <devsock_close>:
	return nsipc_shutdown(r, how);
}

static int
devsock_close(struct Fd *fd)
{
  8027b0:	55                   	push   %ebp
  8027b1:	89 e5                	mov    %esp,%ebp
  8027b3:	83 ec 18             	sub    $0x18,%esp
	return nsipc_close(fd->fd_sock.sockid);
  8027b6:	8b 45 08             	mov    0x8(%ebp),%eax
  8027b9:	8b 40 0c             	mov    0xc(%eax),%eax
  8027bc:	89 04 24             	mov    %eax,(%esp)
  8027bf:	e8 9e 02 00 00       	call   802a62 <nsipc_close>
}
  8027c4:	c9                   	leave  
  8027c5:	c3                   	ret    

008027c6 <devsock_write>:
	return nsipc_recv(fd->fd_sock.sockid, buf, n, 0);
}

static ssize_t
devsock_write(struct Fd *fd, const void *buf, size_t n)
{
  8027c6:	55                   	push   %ebp
  8027c7:	89 e5                	mov    %esp,%ebp
  8027c9:	83 ec 18             	sub    $0x18,%esp
	return nsipc_send(fd->fd_sock.sockid, buf, n, 0);
  8027cc:	c7 44 24 0c 00 00 00 	movl   $0x0,0xc(%esp)
  8027d3:	00 
  8027d4:	8b 45 10             	mov    0x10(%ebp),%eax
  8027d7:	89 44 24 08          	mov    %eax,0x8(%esp)
  8027db:	8b 45 0c             	mov    0xc(%ebp),%eax
  8027de:	89 44 24 04          	mov    %eax,0x4(%esp)
  8027e2:	8b 45 08             	mov    0x8(%ebp),%eax
  8027e5:	8b 40 0c             	mov    0xc(%eax),%eax
  8027e8:	89 04 24             	mov    %eax,(%esp)
  8027eb:	e8 ae 02 00 00       	call   802a9e <nsipc_send>
}
  8027f0:	c9                   	leave  
  8027f1:	c3                   	ret    

008027f2 <devsock_read>:
	return nsipc_listen(r, backlog);
}

static ssize_t
devsock_read(struct Fd *fd, void *buf, size_t n)
{
  8027f2:	55                   	push   %ebp
  8027f3:	89 e5                	mov    %esp,%ebp
  8027f5:	83 ec 18             	sub    $0x18,%esp
	return nsipc_recv(fd->fd_sock.sockid, buf, n, 0);
  8027f8:	c7 44 24 0c 00 00 00 	movl   $0x0,0xc(%esp)
  8027ff:	00 
  802800:	8b 45 10             	mov    0x10(%ebp),%eax
  802803:	89 44 24 08          	mov    %eax,0x8(%esp)
  802807:	8b 45 0c             	mov    0xc(%ebp),%eax
  80280a:	89 44 24 04          	mov    %eax,0x4(%esp)
  80280e:	8b 45 08             	mov    0x8(%ebp),%eax
  802811:	8b 40 0c             	mov    0xc(%eax),%eax
  802814:	89 04 24             	mov    %eax,(%esp)
  802817:	e8 f5 02 00 00       	call   802b11 <nsipc_recv>
}
  80281c:	c9                   	leave  
  80281d:	c3                   	ret    

0080281e <alloc_sockfd>:
	return sfd->fd_sock.sockid;
}

static int
alloc_sockfd(int sockid)
{
  80281e:	55                   	push   %ebp
  80281f:	89 e5                	mov    %esp,%ebp
  802821:	56                   	push   %esi
  802822:	53                   	push   %ebx
  802823:	83 ec 20             	sub    $0x20,%esp
  802826:	89 c6                	mov    %eax,%esi
	struct Fd *sfd;
	int r;

	if ((r = fd_alloc(&sfd)) < 0
  802828:	8d 45 f4             	lea    -0xc(%ebp),%eax
  80282b:	89 04 24             	mov    %eax,(%esp)
  80282e:	e8 f8 f6 ff ff       	call   801f2b <fd_alloc>
  802833:	89 c3                	mov    %eax,%ebx
  802835:	85 c0                	test   %eax,%eax
  802837:	78 21                	js     80285a <alloc_sockfd+0x3c>
	    || (r = sys_page_alloc(0, sfd, PTE_P|PTE_W|PTE_U)) < 0) {
  802839:	c7 44 24 08 07 00 00 	movl   $0x7,0x8(%esp)
  802840:	00 
  802841:	8b 45 f4             	mov    -0xc(%ebp),%eax
  802844:	89 44 24 04          	mov    %eax,0x4(%esp)
  802848:	c7 04 24 00 00 00 00 	movl   $0x0,(%esp)
  80284f:	e8 f7 f0 ff ff       	call   80194b <sys_page_alloc>
  802854:	89 c3                	mov    %eax,%ebx
alloc_sockfd(int sockid)
{
	struct Fd *sfd;
	int r;

	if ((r = fd_alloc(&sfd)) < 0
  802856:	85 c0                	test   %eax,%eax
  802858:	79 0a                	jns    802864 <alloc_sockfd+0x46>
	    || (r = sys_page_alloc(0, sfd, PTE_P|PTE_W|PTE_U)) < 0) {
		nsipc_close(sockid);
  80285a:	89 34 24             	mov    %esi,(%esp)
  80285d:	e8 00 02 00 00       	call   802a62 <nsipc_close>
		return r;
  802862:	eb 28                	jmp    80288c <alloc_sockfd+0x6e>
	}

	sfd->fd_dev_id = devsock.dev_id;
  802864:	8b 15 20 90 81 00    	mov    0x819020,%edx
  80286a:	8b 45 f4             	mov    -0xc(%ebp),%eax
  80286d:	89 10                	mov    %edx,(%eax)
	sfd->fd_omode = O_RDWR;
  80286f:	8b 45 f4             	mov    -0xc(%ebp),%eax
  802872:	c7 40 08 02 00 00 00 	movl   $0x2,0x8(%eax)
	sfd->fd_sock.sockid = sockid;
  802879:	8b 45 f4             	mov    -0xc(%ebp),%eax
  80287c:	89 70 0c             	mov    %esi,0xc(%eax)
	return fd2num(sfd);
  80287f:	8b 45 f4             	mov    -0xc(%ebp),%eax
  802882:	89 04 24             	mov    %eax,(%esp)
  802885:	e8 76 f6 ff ff       	call   801f00 <fd2num>
  80288a:	89 c3                	mov    %eax,%ebx
}
  80288c:	89 d8                	mov    %ebx,%eax
  80288e:	83 c4 20             	add    $0x20,%esp
  802891:	5b                   	pop    %ebx
  802892:	5e                   	pop    %esi
  802893:	5d                   	pop    %ebp
  802894:	c3                   	ret    

00802895 <socket>:
	return 0;
}

int
socket(int domain, int type, int protocol)
{
  802895:	55                   	push   %ebp
  802896:	89 e5                	mov    %esp,%ebp
  802898:	83 ec 18             	sub    $0x18,%esp
	int r;
	if ((r = nsipc_socket(domain, type, protocol)) < 0)
  80289b:	8b 45 10             	mov    0x10(%ebp),%eax
  80289e:	89 44 24 08          	mov    %eax,0x8(%esp)
  8028a2:	8b 45 0c             	mov    0xc(%ebp),%eax
  8028a5:	89 44 24 04          	mov    %eax,0x4(%esp)
  8028a9:	8b 45 08             	mov    0x8(%ebp),%eax
  8028ac:	89 04 24             	mov    %eax,(%esp)
  8028af:	e8 62 01 00 00       	call   802a16 <nsipc_socket>
  8028b4:	85 c0                	test   %eax,%eax
  8028b6:	78 05                	js     8028bd <socket+0x28>
		return r;
	return alloc_sockfd(r);
  8028b8:	e8 61 ff ff ff       	call   80281e <alloc_sockfd>
}
  8028bd:	c9                   	leave  
  8028be:	66 90                	xchg   %ax,%ax
  8028c0:	c3                   	ret    

008028c1 <fd2sockid>:
	.dev_stat =	devsock_stat,
};

static int
fd2sockid(int fd)
{
  8028c1:	55                   	push   %ebp
  8028c2:	89 e5                	mov    %esp,%ebp
  8028c4:	83 ec 28             	sub    $0x28,%esp
	struct Fd *sfd;
	int r;

	if ((r = fd_lookup(fd, &sfd)) < 0)
  8028c7:	8d 55 f4             	lea    -0xc(%ebp),%edx
  8028ca:	89 54 24 04          	mov    %edx,0x4(%esp)
  8028ce:	89 04 24             	mov    %eax,(%esp)
  8028d1:	e8 c7 f6 ff ff       	call   801f9d <fd_lookup>
  8028d6:	85 c0                	test   %eax,%eax
  8028d8:	78 15                	js     8028ef <fd2sockid+0x2e>
		return r;
	if (sfd->fd_dev_id != devsock.dev_id)
  8028da:	8b 55 f4             	mov    -0xc(%ebp),%edx
  8028dd:	8b 0a                	mov    (%edx),%ecx
  8028df:	b8 f1 ff ff ff       	mov    $0xfffffff1,%eax
  8028e4:	3b 0d 20 90 81 00    	cmp    0x819020,%ecx
  8028ea:	75 03                	jne    8028ef <fd2sockid+0x2e>
		return -E_NOT_SUPP;
	return sfd->fd_sock.sockid;
  8028ec:	8b 42 0c             	mov    0xc(%edx),%eax
}
  8028ef:	c9                   	leave  
  8028f0:	c3                   	ret    

008028f1 <listen>:
	return nsipc_connect(r, name, namelen);
}

int
listen(int s, int backlog)
{
  8028f1:	55                   	push   %ebp
  8028f2:	89 e5                	mov    %esp,%ebp
  8028f4:	83 ec 18             	sub    $0x18,%esp
	int r;
	if ((r = fd2sockid(s)) < 0)
  8028f7:	8b 45 08             	mov    0x8(%ebp),%eax
  8028fa:	e8 c2 ff ff ff       	call   8028c1 <fd2sockid>
  8028ff:	85 c0                	test   %eax,%eax
  802901:	78 0f                	js     802912 <listen+0x21>
		return r;
	return nsipc_listen(r, backlog);
  802903:	8b 55 0c             	mov    0xc(%ebp),%edx
  802906:	89 54 24 04          	mov    %edx,0x4(%esp)
  80290a:	89 04 24             	mov    %eax,(%esp)
  80290d:	e8 2e 01 00 00       	call   802a40 <nsipc_listen>
}
  802912:	c9                   	leave  
  802913:	c3                   	ret    

00802914 <connect>:
	return nsipc_close(fd->fd_sock.sockid);
}

int
connect(int s, const struct sockaddr *name, socklen_t namelen)
{
  802914:	55                   	push   %ebp
  802915:	89 e5                	mov    %esp,%ebp
  802917:	83 ec 18             	sub    $0x18,%esp
	int r;
	if ((r = fd2sockid(s)) < 0)
  80291a:	8b 45 08             	mov    0x8(%ebp),%eax
  80291d:	e8 9f ff ff ff       	call   8028c1 <fd2sockid>
  802922:	85 c0                	test   %eax,%eax
  802924:	78 16                	js     80293c <connect+0x28>
		return r;
	return nsipc_connect(r, name, namelen);
  802926:	8b 55 10             	mov    0x10(%ebp),%edx
  802929:	89 54 24 08          	mov    %edx,0x8(%esp)
  80292d:	8b 55 0c             	mov    0xc(%ebp),%edx
  802930:	89 54 24 04          	mov    %edx,0x4(%esp)
  802934:	89 04 24             	mov    %eax,(%esp)
  802937:	e8 55 02 00 00       	call   802b91 <nsipc_connect>
}
  80293c:	c9                   	leave  
  80293d:	c3                   	ret    

0080293e <shutdown>:
	return nsipc_bind(r, name, namelen);
}

int
shutdown(int s, int how)
{
  80293e:	55                   	push   %ebp
  80293f:	89 e5                	mov    %esp,%ebp
  802941:	83 ec 18             	sub    $0x18,%esp
	int r;
	if ((r = fd2sockid(s)) < 0)
  802944:	8b 45 08             	mov    0x8(%ebp),%eax
  802947:	e8 75 ff ff ff       	call   8028c1 <fd2sockid>
  80294c:	85 c0                	test   %eax,%eax
  80294e:	78 0f                	js     80295f <shutdown+0x21>
		return r;
	return nsipc_shutdown(r, how);
  802950:	8b 55 0c             	mov    0xc(%ebp),%edx
  802953:	89 54 24 04          	mov    %edx,0x4(%esp)
  802957:	89 04 24             	mov    %eax,(%esp)
  80295a:	e8 1d 01 00 00       	call   802a7c <nsipc_shutdown>
}
  80295f:	c9                   	leave  
  802960:	c3                   	ret    

00802961 <bind>:
	return alloc_sockfd(r);
}

int
bind(int s, struct sockaddr *name, socklen_t namelen)
{
  802961:	55                   	push   %ebp
  802962:	89 e5                	mov    %esp,%ebp
  802964:	83 ec 18             	sub    $0x18,%esp
	int r;
	if ((r = fd2sockid(s)) < 0)
  802967:	8b 45 08             	mov    0x8(%ebp),%eax
  80296a:	e8 52 ff ff ff       	call   8028c1 <fd2sockid>
  80296f:	85 c0                	test   %eax,%eax
  802971:	78 16                	js     802989 <bind+0x28>
		return r;
	return nsipc_bind(r, name, namelen);
  802973:	8b 55 10             	mov    0x10(%ebp),%edx
  802976:	89 54 24 08          	mov    %edx,0x8(%esp)
  80297a:	8b 55 0c             	mov    0xc(%ebp),%edx
  80297d:	89 54 24 04          	mov    %edx,0x4(%esp)
  802981:	89 04 24             	mov    %eax,(%esp)
  802984:	e8 47 02 00 00       	call   802bd0 <nsipc_bind>
}
  802989:	c9                   	leave  
  80298a:	c3                   	ret    

0080298b <accept>:
	return fd2num(sfd);
}

int
accept(int s, struct sockaddr *addr, socklen_t *addrlen)
{
  80298b:	55                   	push   %ebp
  80298c:	89 e5                	mov    %esp,%ebp
  80298e:	83 ec 18             	sub    $0x18,%esp
	int r;
	if ((r = fd2sockid(s)) < 0)
  802991:	8b 45 08             	mov    0x8(%ebp),%eax
  802994:	e8 28 ff ff ff       	call   8028c1 <fd2sockid>
  802999:	85 c0                	test   %eax,%eax
  80299b:	78 1f                	js     8029bc <accept+0x31>
		return r;
	if ((r = nsipc_accept(r, addr, addrlen)) < 0)
  80299d:	8b 55 10             	mov    0x10(%ebp),%edx
  8029a0:	89 54 24 08          	mov    %edx,0x8(%esp)
  8029a4:	8b 55 0c             	mov    0xc(%ebp),%edx
  8029a7:	89 54 24 04          	mov    %edx,0x4(%esp)
  8029ab:	89 04 24             	mov    %eax,(%esp)
  8029ae:	e8 5c 02 00 00       	call   802c0f <nsipc_accept>
  8029b3:	85 c0                	test   %eax,%eax
  8029b5:	78 05                	js     8029bc <accept+0x31>
		return r;
	return alloc_sockfd(r);
  8029b7:	e8 62 fe ff ff       	call   80281e <alloc_sockfd>
}
  8029bc:	c9                   	leave  
  8029bd:	8d 76 00             	lea    0x0(%esi),%esi
  8029c0:	c3                   	ret    
	...

008029d0 <nsipc>:
// may be written back to nsipcbuf.
// type: request code, passed as the simple integer IPC value.
// Returns 0 if successful, < 0 on failure.
static int
nsipc(unsigned type)
{
  8029d0:	55                   	push   %ebp
  8029d1:	89 e5                	mov    %esp,%ebp
  8029d3:	83 ec 18             	sub    $0x18,%esp
	if (debug)
		cprintf("[%08x] nsipc %d\n", env->env_id, type);

	ipc_send(envs[2].env_id, type, &nsipcbuf, PTE_P|PTE_W|PTE_U);
  8029d6:	8b 15 44 01 c0 ee    	mov    0xeec00144,%edx
  8029dc:	c7 44 24 0c 07 00 00 	movl   $0x7,0xc(%esp)
  8029e3:	00 
  8029e4:	c7 44 24 08 00 80 81 	movl   $0x818000,0x8(%esp)
  8029eb:	00 
  8029ec:	89 44 24 04          	mov    %eax,0x4(%esp)
  8029f0:	89 14 24             	mov    %edx,(%esp)
  8029f3:	e8 38 f4 ff ff       	call   801e30 <ipc_send>
	return ipc_recv(NULL, NULL, NULL);
  8029f8:	c7 44 24 08 00 00 00 	movl   $0x0,0x8(%esp)
  8029ff:	00 
  802a00:	c7 44 24 04 00 00 00 	movl   $0x0,0x4(%esp)
  802a07:	00 
  802a08:	c7 04 24 00 00 00 00 	movl   $0x0,(%esp)
  802a0f:	e8 82 f4 ff ff       	call   801e96 <ipc_recv>
}
  802a14:	c9                   	leave  
  802a15:	c3                   	ret    

00802a16 <nsipc_socket>:
	return nsipc(NSREQ_SEND);
}

int
nsipc_socket(int domain, int type, int protocol)
{
  802a16:	55                   	push   %ebp
  802a17:	89 e5                	mov    %esp,%ebp
  802a19:	83 ec 08             	sub    $0x8,%esp
	nsipcbuf.socket.req_domain = domain;
  802a1c:	8b 45 08             	mov    0x8(%ebp),%eax
  802a1f:	a3 00 80 81 00       	mov    %eax,0x818000
	nsipcbuf.socket.req_type = type;
  802a24:	8b 45 0c             	mov    0xc(%ebp),%eax
  802a27:	a3 04 80 81 00       	mov    %eax,0x818004
	nsipcbuf.socket.req_protocol = protocol;
  802a2c:	8b 45 10             	mov    0x10(%ebp),%eax
  802a2f:	a3 08 80 81 00       	mov    %eax,0x818008
	return nsipc(NSREQ_SOCKET);
  802a34:	b8 09 00 00 00       	mov    $0x9,%eax
  802a39:	e8 92 ff ff ff       	call   8029d0 <nsipc>
}
  802a3e:	c9                   	leave  
  802a3f:	c3                   	ret    

00802a40 <nsipc_listen>:
	return nsipc(NSREQ_CONNECT);
}

int
nsipc_listen(int s, int backlog)
{
  802a40:	55                   	push   %ebp
  802a41:	89 e5                	mov    %esp,%ebp
  802a43:	83 ec 08             	sub    $0x8,%esp
	nsipcbuf.listen.req_s = s;
  802a46:	8b 45 08             	mov    0x8(%ebp),%eax
  802a49:	a3 00 80 81 00       	mov    %eax,0x818000
	nsipcbuf.listen.req_backlog = backlog;
  802a4e:	8b 45 0c             	mov    0xc(%ebp),%eax
  802a51:	a3 04 80 81 00       	mov    %eax,0x818004
	return nsipc(NSREQ_LISTEN);
  802a56:	b8 06 00 00 00       	mov    $0x6,%eax
  802a5b:	e8 70 ff ff ff       	call   8029d0 <nsipc>
}
  802a60:	c9                   	leave  
  802a61:	c3                   	ret    

00802a62 <nsipc_close>:
	return nsipc(NSREQ_SHUTDOWN);
}

int
nsipc_close(int s)
{
  802a62:	55                   	push   %ebp
  802a63:	89 e5                	mov    %esp,%ebp
  802a65:	83 ec 08             	sub    $0x8,%esp
	nsipcbuf.close.req_s = s;
  802a68:	8b 45 08             	mov    0x8(%ebp),%eax
  802a6b:	a3 00 80 81 00       	mov    %eax,0x818000
	return nsipc(NSREQ_CLOSE);
  802a70:	b8 04 00 00 00       	mov    $0x4,%eax
  802a75:	e8 56 ff ff ff       	call   8029d0 <nsipc>
}
  802a7a:	c9                   	leave  
  802a7b:	c3                   	ret    

00802a7c <nsipc_shutdown>:
	return nsipc(NSREQ_BIND);
}

int
nsipc_shutdown(int s, int how)
{
  802a7c:	55                   	push   %ebp
  802a7d:	89 e5                	mov    %esp,%ebp
  802a7f:	83 ec 08             	sub    $0x8,%esp
	nsipcbuf.shutdown.req_s = s;
  802a82:	8b 45 08             	mov    0x8(%ebp),%eax
  802a85:	a3 00 80 81 00       	mov    %eax,0x818000
	nsipcbuf.shutdown.req_how = how;
  802a8a:	8b 45 0c             	mov    0xc(%ebp),%eax
  802a8d:	a3 04 80 81 00       	mov    %eax,0x818004
	return nsipc(NSREQ_SHUTDOWN);
  802a92:	b8 03 00 00 00       	mov    $0x3,%eax
  802a97:	e8 34 ff ff ff       	call   8029d0 <nsipc>
}
  802a9c:	c9                   	leave  
  802a9d:	c3                   	ret    

00802a9e <nsipc_send>:
	return r;
}

int
nsipc_send(int s, const void *buf, int size, unsigned int flags)
{
  802a9e:	55                   	push   %ebp
  802a9f:	89 e5                	mov    %esp,%ebp
  802aa1:	53                   	push   %ebx
  802aa2:	83 ec 14             	sub    $0x14,%esp
  802aa5:	8b 5d 10             	mov    0x10(%ebp),%ebx
	nsipcbuf.send.req_s = s;
  802aa8:	8b 45 08             	mov    0x8(%ebp),%eax
  802aab:	a3 00 80 81 00       	mov    %eax,0x818000
	assert(size < 1600);
  802ab0:	81 fb 3f 06 00 00    	cmp    $0x63f,%ebx
  802ab6:	7e 24                	jle    802adc <nsipc_send+0x3e>
  802ab8:	c7 44 24 0c 04 2e 81 	movl   $0x812e04,0xc(%esp)
  802abf:	00 
  802ac0:	c7 44 24 08 10 2e 81 	movl   $0x812e10,0x8(%esp)
  802ac7:	00 
  802ac8:	c7 44 24 04 66 00 00 	movl   $0x66,0x4(%esp)
  802acf:	00 
  802ad0:	c7 04 24 25 2e 81 00 	movl   $0x812e25,(%esp)
  802ad7:	e8 f8 de ff ff       	call   8009d4 <_panic>
	memmove(&nsipcbuf.send.req_buf, buf, size);
  802adc:	89 5c 24 08          	mov    %ebx,0x8(%esp)
  802ae0:	8b 45 0c             	mov    0xc(%ebp),%eax
  802ae3:	89 44 24 04          	mov    %eax,0x4(%esp)
  802ae7:	c7 04 24 0c 80 81 00 	movl   $0x81800c,(%esp)
  802aee:	e8 22 e8 ff ff       	call   801315 <memmove>
	nsipcbuf.send.req_size = size;
  802af3:	89 1d 04 80 81 00    	mov    %ebx,0x818004
	nsipcbuf.send.req_flags = flags;
  802af9:	8b 45 14             	mov    0x14(%ebp),%eax
  802afc:	a3 08 80 81 00       	mov    %eax,0x818008
	return nsipc(NSREQ_SEND);
  802b01:	b8 08 00 00 00       	mov    $0x8,%eax
  802b06:	e8 c5 fe ff ff       	call   8029d0 <nsipc>
}
  802b0b:	83 c4 14             	add    $0x14,%esp
  802b0e:	5b                   	pop    %ebx
  802b0f:	5d                   	pop    %ebp
  802b10:	c3                   	ret    

00802b11 <nsipc_recv>:
	return nsipc(NSREQ_LISTEN);
}

int
nsipc_recv(int s, void *mem, int len, unsigned int flags)
{
  802b11:	55                   	push   %ebp
  802b12:	89 e5                	mov    %esp,%ebp
  802b14:	56                   	push   %esi
  802b15:	53                   	push   %ebx
  802b16:	83 ec 10             	sub    $0x10,%esp
  802b19:	8b 75 10             	mov    0x10(%ebp),%esi
	int r;

	nsipcbuf.recv.req_s = s;
  802b1c:	8b 45 08             	mov    0x8(%ebp),%eax
  802b1f:	a3 00 80 81 00       	mov    %eax,0x818000
	nsipcbuf.recv.req_len = len;
  802b24:	89 35 04 80 81 00    	mov    %esi,0x818004
	nsipcbuf.recv.req_flags = flags;
  802b2a:	8b 45 14             	mov    0x14(%ebp),%eax
  802b2d:	a3 08 80 81 00       	mov    %eax,0x818008

	if ((r = nsipc(NSREQ_RECV)) >= 0) {
  802b32:	b8 07 00 00 00       	mov    $0x7,%eax
  802b37:	e8 94 fe ff ff       	call   8029d0 <nsipc>
  802b3c:	89 c3                	mov    %eax,%ebx
  802b3e:	85 c0                	test   %eax,%eax
  802b40:	78 46                	js     802b88 <nsipc_recv+0x77>
		assert(r < 1600 && r <= len);
  802b42:	3d 3f 06 00 00       	cmp    $0x63f,%eax
  802b47:	7f 04                	jg     802b4d <nsipc_recv+0x3c>
  802b49:	39 c6                	cmp    %eax,%esi
  802b4b:	7d 24                	jge    802b71 <nsipc_recv+0x60>
  802b4d:	c7 44 24 0c 31 2e 81 	movl   $0x812e31,0xc(%esp)
  802b54:	00 
  802b55:	c7 44 24 08 10 2e 81 	movl   $0x812e10,0x8(%esp)
  802b5c:	00 
  802b5d:	c7 44 24 04 5b 00 00 	movl   $0x5b,0x4(%esp)
  802b64:	00 
  802b65:	c7 04 24 25 2e 81 00 	movl   $0x812e25,(%esp)
  802b6c:	e8 63 de ff ff       	call   8009d4 <_panic>
		memmove(mem, nsipcbuf.recvRet.ret_buf, r);
  802b71:	89 44 24 08          	mov    %eax,0x8(%esp)
  802b75:	c7 44 24 04 00 80 81 	movl   $0x818000,0x4(%esp)
  802b7c:	00 
  802b7d:	8b 45 0c             	mov    0xc(%ebp),%eax
  802b80:	89 04 24             	mov    %eax,(%esp)
  802b83:	e8 8d e7 ff ff       	call   801315 <memmove>
	}

	return r;
}
  802b88:	89 d8                	mov    %ebx,%eax
  802b8a:	83 c4 10             	add    $0x10,%esp
  802b8d:	5b                   	pop    %ebx
  802b8e:	5e                   	pop    %esi
  802b8f:	5d                   	pop    %ebp
  802b90:	c3                   	ret    

00802b91 <nsipc_connect>:
	return nsipc(NSREQ_CLOSE);
}

int
nsipc_connect(int s, const struct sockaddr *name, socklen_t namelen)
{
  802b91:	55                   	push   %ebp
  802b92:	89 e5                	mov    %esp,%ebp
  802b94:	53                   	push   %ebx
  802b95:	83 ec 14             	sub    $0x14,%esp
  802b98:	8b 5d 10             	mov    0x10(%ebp),%ebx
	nsipcbuf.connect.req_s = s;
  802b9b:	8b 45 08             	mov    0x8(%ebp),%eax
  802b9e:	a3 00 80 81 00       	mov    %eax,0x818000
	memmove(&nsipcbuf.connect.req_name, name, namelen);
  802ba3:	89 5c 24 08          	mov    %ebx,0x8(%esp)
  802ba7:	8b 45 0c             	mov    0xc(%ebp),%eax
  802baa:	89 44 24 04          	mov    %eax,0x4(%esp)
  802bae:	c7 04 24 04 80 81 00 	movl   $0x818004,(%esp)
  802bb5:	e8 5b e7 ff ff       	call   801315 <memmove>
	nsipcbuf.connect.req_namelen = namelen;
  802bba:	89 1d 14 80 81 00    	mov    %ebx,0x818014
	return nsipc(NSREQ_CONNECT);
  802bc0:	b8 05 00 00 00       	mov    $0x5,%eax
  802bc5:	e8 06 fe ff ff       	call   8029d0 <nsipc>
}
  802bca:	83 c4 14             	add    $0x14,%esp
  802bcd:	5b                   	pop    %ebx
  802bce:	5d                   	pop    %ebp
  802bcf:	c3                   	ret    

00802bd0 <nsipc_bind>:
	return r;
}

int
nsipc_bind(int s, struct sockaddr *name, socklen_t namelen)
{
  802bd0:	55                   	push   %ebp
  802bd1:	89 e5                	mov    %esp,%ebp
  802bd3:	53                   	push   %ebx
  802bd4:	83 ec 14             	sub    $0x14,%esp
  802bd7:	8b 5d 10             	mov    0x10(%ebp),%ebx
	nsipcbuf.bind.req_s = s;
  802bda:	8b 45 08             	mov    0x8(%ebp),%eax
  802bdd:	a3 00 80 81 00       	mov    %eax,0x818000
	memmove(&nsipcbuf.bind.req_name, name, namelen);
  802be2:	89 5c 24 08          	mov    %ebx,0x8(%esp)
  802be6:	8b 45 0c             	mov    0xc(%ebp),%eax
  802be9:	89 44 24 04          	mov    %eax,0x4(%esp)
  802bed:	c7 04 24 04 80 81 00 	movl   $0x818004,(%esp)
  802bf4:	e8 1c e7 ff ff       	call   801315 <memmove>
	nsipcbuf.bind.req_namelen = namelen;
  802bf9:	89 1d 14 80 81 00    	mov    %ebx,0x818014
	return nsipc(NSREQ_BIND);
  802bff:	b8 02 00 00 00       	mov    $0x2,%eax
  802c04:	e8 c7 fd ff ff       	call   8029d0 <nsipc>
}
  802c09:	83 c4 14             	add    $0x14,%esp
  802c0c:	5b                   	pop    %ebx
  802c0d:	5d                   	pop    %ebp
  802c0e:	c3                   	ret    

00802c0f <nsipc_accept>:
	return ipc_recv(NULL, NULL, NULL);
}

int
nsipc_accept(int s, struct sockaddr *addr, socklen_t *addrlen)
{
  802c0f:	55                   	push   %ebp
  802c10:	89 e5                	mov    %esp,%ebp
  802c12:	83 ec 18             	sub    $0x18,%esp
  802c15:	89 5d f8             	mov    %ebx,-0x8(%ebp)
  802c18:	89 75 fc             	mov    %esi,-0x4(%ebp)
	int r;
	
	nsipcbuf.accept.req_s = s;
  802c1b:	8b 45 08             	mov    0x8(%ebp),%eax
  802c1e:	a3 00 80 81 00       	mov    %eax,0x818000
	if ((r = nsipc(NSREQ_ACCEPT)) >= 0) {
  802c23:	b8 01 00 00 00       	mov    $0x1,%eax
  802c28:	e8 a3 fd ff ff       	call   8029d0 <nsipc>
  802c2d:	89 c3                	mov    %eax,%ebx
  802c2f:	85 c0                	test   %eax,%eax
  802c31:	78 25                	js     802c58 <nsipc_accept+0x49>
		struct Nsret_accept *ret = &nsipcbuf.acceptRet;
		memmove(addr, &ret->ret_addr, ret->ret_addrlen);
  802c33:	be 10 80 81 00       	mov    $0x818010,%esi
  802c38:	8b 06                	mov    (%esi),%eax
  802c3a:	89 44 24 08          	mov    %eax,0x8(%esp)
  802c3e:	c7 44 24 04 00 80 81 	movl   $0x818000,0x4(%esp)
  802c45:	00 
  802c46:	8b 45 0c             	mov    0xc(%ebp),%eax
  802c49:	89 04 24             	mov    %eax,(%esp)
  802c4c:	e8 c4 e6 ff ff       	call   801315 <memmove>
		*addrlen = ret->ret_addrlen;
  802c51:	8b 16                	mov    (%esi),%edx
  802c53:	8b 45 10             	mov    0x10(%ebp),%eax
  802c56:	89 10                	mov    %edx,(%eax)
	}
	return r;
}
  802c58:	89 d8                	mov    %ebx,%eax
  802c5a:	8b 5d f8             	mov    -0x8(%ebp),%ebx
  802c5d:	8b 75 fc             	mov    -0x4(%ebp),%esi
  802c60:	89 ec                	mov    %ebp,%esp
  802c62:	5d                   	pop    %ebp
  802c63:	c3                   	ret    
	...

00802c70 <free>:
	return v;
}

void
free(void *v)
{
  802c70:	55                   	push   %ebp
  802c71:	89 e5                	mov    %esp,%ebp
  802c73:	56                   	push   %esi
  802c74:	53                   	push   %ebx
  802c75:	83 ec 10             	sub    $0x10,%esp
  802c78:	8b 5d 08             	mov    0x8(%ebp),%ebx
	uint8_t *c;
	uint32_t *ref;

	if (v == 0)
  802c7b:	85 db                	test   %ebx,%ebx
  802c7d:	0f 84 b9 00 00 00    	je     802d3c <free+0xcc>
		return;
	assert(mbegin <= (uint8_t*) v && (uint8_t*) v < mend);
  802c83:	81 fb ff ff ff 07    	cmp    $0x7ffffff,%ebx
  802c89:	76 08                	jbe    802c93 <free+0x23>
  802c8b:	81 fb ff ff ff 0f    	cmp    $0xfffffff,%ebx
  802c91:	76 24                	jbe    802cb7 <free+0x47>
  802c93:	c7 44 24 0c 48 2e 81 	movl   $0x812e48,0xc(%esp)
  802c9a:	00 
  802c9b:	c7 44 24 08 10 2e 81 	movl   $0x812e10,0x8(%esp)
  802ca2:	00 
  802ca3:	c7 44 24 04 7a 00 00 	movl   $0x7a,0x4(%esp)
  802caa:	00 
  802cab:	c7 04 24 76 2e 81 00 	movl   $0x812e76,(%esp)
  802cb2:	e8 1d dd ff ff       	call   8009d4 <_panic>

	c = ROUNDDOWN(v, PGSIZE);
  802cb7:	81 e3 00 f0 ff ff    	and    $0xfffff000,%ebx

	while (vpt[VPN(c)] & PTE_CONTINUED) {
  802cbd:	be 00 00 40 ef       	mov    $0xef400000,%esi
  802cc2:	eb 4a                	jmp    802d0e <free+0x9e>
		sys_page_unmap(0, c);
  802cc4:	89 5c 24 04          	mov    %ebx,0x4(%esp)
  802cc8:	c7 04 24 00 00 00 00 	movl   $0x0,(%esp)
  802ccf:	e8 bb eb ff ff       	call   80188f <sys_page_unmap>
		c += PGSIZE;
  802cd4:	81 c3 00 10 00 00    	add    $0x1000,%ebx
		assert(mbegin <= c && c < mend);
  802cda:	81 fb ff ff ff 07    	cmp    $0x7ffffff,%ebx
  802ce0:	76 08                	jbe    802cea <free+0x7a>
  802ce2:	81 fb ff ff ff 0f    	cmp    $0xfffffff,%ebx
  802ce8:	76 24                	jbe    802d0e <free+0x9e>
  802cea:	c7 44 24 0c 83 2e 81 	movl   $0x812e83,0xc(%esp)
  802cf1:	00 
  802cf2:	c7 44 24 08 10 2e 81 	movl   $0x812e10,0x8(%esp)
  802cf9:	00 
  802cfa:	c7 44 24 04 81 00 00 	movl   $0x81,0x4(%esp)
  802d01:	00 
  802d02:	c7 04 24 76 2e 81 00 	movl   $0x812e76,(%esp)
  802d09:	e8 c6 dc ff ff       	call   8009d4 <_panic>
		return;
	assert(mbegin <= (uint8_t*) v && (uint8_t*) v < mend);

	c = ROUNDDOWN(v, PGSIZE);

	while (vpt[VPN(c)] & PTE_CONTINUED) {
  802d0e:	89 d8                	mov    %ebx,%eax
  802d10:	c1 e8 0c             	shr    $0xc,%eax
  802d13:	8b 04 86             	mov    (%esi,%eax,4),%eax
  802d16:	f6 c4 04             	test   $0x4,%ah
  802d19:	75 a9                	jne    802cc4 <free+0x54>

	/*
	 * c is just a piece of this page, so dec the ref count
	 * and maybe free the page.
	 */
	ref = (uint32_t*) (c + PGSIZE - 4);
  802d1b:	8d 93 fc 0f 00 00    	lea    0xffc(%ebx),%edx
	if (--(*ref) == 0)
  802d21:	8b 02                	mov    (%edx),%eax
  802d23:	83 e8 01             	sub    $0x1,%eax
  802d26:	89 02                	mov    %eax,(%edx)
  802d28:	85 c0                	test   %eax,%eax
  802d2a:	75 10                	jne    802d3c <free+0xcc>
		sys_page_unmap(0, c);	
  802d2c:	89 5c 24 04          	mov    %ebx,0x4(%esp)
  802d30:	c7 04 24 00 00 00 00 	movl   $0x0,(%esp)
  802d37:	e8 53 eb ff ff       	call   80188f <sys_page_unmap>
}
  802d3c:	83 c4 10             	add    $0x10,%esp
  802d3f:	5b                   	pop    %ebx
  802d40:	5e                   	pop    %esi
  802d41:	5d                   	pop    %ebp
  802d42:	c3                   	ret    

00802d43 <malloc>:
	return 1;
}

void*
malloc(size_t n)
{
  802d43:	55                   	push   %ebp
  802d44:	89 e5                	mov    %esp,%ebp
  802d46:	57                   	push   %edi
  802d47:	56                   	push   %esi
  802d48:	53                   	push   %ebx
  802d49:	83 ec 3c             	sub    $0x3c,%esp
	int i, cont;
	int nwrap;
	uint32_t *ref;
	void *v;

	if (mptr == 0)
  802d4c:	83 3d 10 94 81 00 00 	cmpl   $0x0,0x819410
  802d53:	75 0a                	jne    802d5f <malloc+0x1c>
		mptr = mbegin;
  802d55:	c7 05 10 94 81 00 00 	movl   $0x8000000,0x819410
  802d5c:	00 00 08 

	n = ROUNDUP(n, 4);
  802d5f:	8b 45 08             	mov    0x8(%ebp),%eax
  802d62:	83 c0 03             	add    $0x3,%eax
  802d65:	83 e0 fc             	and    $0xfffffffc,%eax
  802d68:	89 45 d8             	mov    %eax,-0x28(%ebp)

	if (n >= MAXMALLOC)
  802d6b:	3d ff ff 0f 00       	cmp    $0xfffff,%eax
  802d70:	0f 87 97 01 00 00    	ja     802f0d <malloc+0x1ca>
		return 0;

	if ((uintptr_t) mptr % PGSIZE){
  802d76:	a1 10 94 81 00       	mov    0x819410,%eax
  802d7b:	89 c2                	mov    %eax,%edx
  802d7d:	a9 ff 0f 00 00       	test   $0xfff,%eax
  802d82:	74 4d                	je     802dd1 <malloc+0x8e>
		 * we're in the middle of a partially
		 * allocated page - can we add this chunk?
		 * the +4 below is for the ref count.
		 */
		ref = (uint32_t*) (ROUNDUP(mptr, PGSIZE) - 4);
		if ((uintptr_t) mptr / PGSIZE == (uintptr_t) (mptr + n - 1 + 4) / PGSIZE) {
  802d84:	89 c3                	mov    %eax,%ebx
  802d86:	c1 eb 0c             	shr    $0xc,%ebx
  802d89:	8b 75 d8             	mov    -0x28(%ebp),%esi
  802d8c:	8d 4c 30 03          	lea    0x3(%eax,%esi,1),%ecx
  802d90:	c1 e9 0c             	shr    $0xc,%ecx
  802d93:	39 cb                	cmp    %ecx,%ebx
  802d95:	75 1e                	jne    802db5 <malloc+0x72>
		/*
		 * we're in the middle of a partially
		 * allocated page - can we add this chunk?
		 * the +4 below is for the ref count.
		 */
		ref = (uint32_t*) (ROUNDUP(mptr, PGSIZE) - 4);
  802d97:	81 c2 ff 0f 00 00    	add    $0xfff,%edx
  802d9d:	81 e2 00 f0 ff ff    	and    $0xfffff000,%edx
		if ((uintptr_t) mptr / PGSIZE == (uintptr_t) (mptr + n - 1 + 4) / PGSIZE) {
			(*ref)++;
  802da3:	83 42 fc 01          	addl   $0x1,-0x4(%edx)
			v = mptr;
			mptr += n;
  802da7:	8d 14 30             	lea    (%eax,%esi,1),%edx
  802daa:	89 15 10 94 81 00    	mov    %edx,0x819410
			return v;
  802db0:	e9 5d 01 00 00       	jmp    802f12 <malloc+0x1cf>
		}
		/*
		 * stop working on this page and move on.
		 */
		free(mptr);	/* drop reference to this page */
  802db5:	89 04 24             	mov    %eax,(%esp)
  802db8:	e8 b3 fe ff ff       	call   802c70 <free>
		mptr = ROUNDDOWN(mptr + PGSIZE, PGSIZE);
  802dbd:	a1 10 94 81 00       	mov    0x819410,%eax
  802dc2:	05 00 10 00 00       	add    $0x1000,%eax
  802dc7:	25 00 f0 ff ff       	and    $0xfffff000,%eax
  802dcc:	a3 10 94 81 00       	mov    %eax,0x819410
  802dd1:	8b 3d 10 94 81 00    	mov    0x819410,%edi
  802dd7:	c7 45 e0 00 00 00 00 	movl   $0x0,-0x20(%ebp)
			return 0;
	return 1;
}

void*
malloc(size_t n)
  802dde:	8b 45 d8             	mov    -0x28(%ebp),%eax
  802de1:	83 c0 04             	add    $0x4,%eax
  802de4:	89 45 dc             	mov    %eax,-0x24(%ebp)
{
	uintptr_t va, end_va = (uintptr_t) v + n;

